Archive member included because of file (symbol)

/home/ru/Knobloch/wrk/BuildRoot/ft-TXT/output/host/opt/ext-toolchain/bin/../lib/gcc/arm-linux-gnueabihf/4.9.1/libgcc.a(_udivsi3.o)
                              arch/arm/cpu/armv7/omap-common/libomap-common.o (__aeabi_uidiv)
/home/ru/Knobloch/wrk/BuildRoot/ft-TXT/output/host/opt/ext-toolchain/bin/../lib/gcc/arm-linux-gnueabihf/4.9.1/libgcc.a(_divsi3.o)
                              common/libcommon.o (__aeabi_idiv)
/home/ru/Knobloch/wrk/BuildRoot/ft-TXT/output/host/opt/ext-toolchain/bin/../lib/gcc/arm-linux-gnueabihf/4.9.1/libgcc.a(_lshrdi3.o)
                              common/libcommon.o (__aeabi_llsr)
/home/ru/Knobloch/wrk/BuildRoot/ft-TXT/output/host/opt/ext-toolchain/bin/../lib/gcc/arm-linux-gnueabihf/4.9.1/libgcc.a(_ashrdi3.o)
                              drivers/mtd/nand/libnand.o (__aeabi_lasr)
/home/ru/Knobloch/wrk/BuildRoot/ft-TXT/output/host/opt/ext-toolchain/bin/../lib/gcc/arm-linux-gnueabihf/4.9.1/libgcc.a(_ashldi3.o)
                              drivers/mmc/libmmc.o (__aeabi_llsl)
/home/ru/Knobloch/wrk/BuildRoot/ft-TXT/output/host/opt/ext-toolchain/bin/../lib/gcc/arm-linux-gnueabihf/4.9.1/libgcc.a(_dvmd_lnx.o)
                              /home/ru/Knobloch/wrk/BuildRoot/ft-TXT/output/host/opt/ext-toolchain/bin/../lib/gcc/arm-linux-gnueabihf/4.9.1/libgcc.a(_udivsi3.o) (__aeabi_idiv0)

Discarded input sections

 .data          0x00000000        0x0 arch/arm/cpu/armv7/start.o
 .bss           0x00000000        0x0 arch/arm/cpu/armv7/start.o
 .text          0x00000000        0x0 board/knobloch/TXT/libTXT.o
 .data          0x00000000        0x0 board/knobloch/TXT/libTXT.o
 .bss           0x00000000        0x0 board/knobloch/TXT/libTXT.o
 .text          0x00000000        0x0 arch/arm/cpu/armv7/am33xx/libam33xx.o
 .text.do_setup_dpll
                0x00000000      0x140 arch/arm/cpu/armv7/am33xx/libam33xx.o
 .text.do_enable_clocks
                0x00000000       0xa0 arch/arm/cpu/armv7/am33xx/libam33xx.o
 .text.prcm_init
                0x00000000       0x9c arch/arm/cpu/armv7/am33xx/libam33xx.o
 .text.get_cpu_rev
                0x00000000       0x14 arch/arm/cpu/armv7/am33xx/libam33xx.o
 .text.get_cpu_type
                0x00000000       0x14 arch/arm/cpu/armv7/am33xx/libam33xx.o
 .text.get_board_rev
                0x00000000        0x8 arch/arm/cpu/armv7/am33xx/libam33xx.o
 .text.get_device_type
                0x00000000       0x18 arch/arm/cpu/armv7/am33xx/libam33xx.o
 .text.get_sysboot_value
                0x00000000       0x18 arch/arm/cpu/armv7/am33xx/libam33xx.o
 .text.am335x_get_tps65910_mpu_vdd
                0x00000000       0x48 arch/arm/cpu/armv7/am33xx/libam33xx.o
 .text.configure_module_pin_mux
                0x00000000       0x30 arch/arm/cpu/armv7/am33xx/libam33xx.o
 .text.config_sdram
                0x00000000       0x90 arch/arm/cpu/armv7/am33xx/libam33xx.o
 .text.set_sdram_timings
                0x00000000       0x40 arch/arm/cpu/armv7/am33xx/libam33xx.o
 .text.config_ddr_phy
                0x00000000       0x20 arch/arm/cpu/armv7/am33xx/libam33xx.o
 .text.config_cmd_ctrl
                0x00000000       0x40 arch/arm/cpu/armv7/am33xx/libam33xx.o
 .text.config_ddr_data
                0x00000000       0x54 arch/arm/cpu/armv7/am33xx/libam33xx.o
 .text.config_io_ctrl
                0x00000000       0x20 arch/arm/cpu/armv7/am33xx/libam33xx.o
 .text.get_dpll_mpu_params
                0x00000000        0xc arch/arm/cpu/armv7/am33xx/libam33xx.o
 .text.get_dpll_core_params
                0x00000000        0xc arch/arm/cpu/armv7/am33xx/libam33xx.o
 .text.get_dpll_per_params
                0x00000000        0xc arch/arm/cpu/armv7/am33xx/libam33xx.o
 .text.setup_clocks_for_console
                0x00000000       0x8c arch/arm/cpu/armv7/am33xx/libam33xx.o
 .text.enable_basic_clocks
                0x00000000       0x60 arch/arm/cpu/armv7/am33xx/libam33xx.o
 .text.rtc32k_enable
                0x00000000       0x2c arch/arm/cpu/armv7/am33xx/libam33xx.o
 .rodata        0x00000000       0x84 arch/arm/cpu/armv7/am33xx/libam33xx.o
 .rodata.__func__.6552
                0x00000000        0xc arch/arm/cpu/armv7/am33xx/libam33xx.o
 .rodata.str1.1
                0x00000000       0xa3 arch/arm/cpu/armv7/am33xx/libam33xx.o
 .rodata.ddr_data_reg
                0x00000000        0x8 arch/arm/cpu/armv7/am33xx/libam33xx.o
 .rodata.ddr_cmd_reg
                0x00000000        0x8 arch/arm/cpu/armv7/am33xx/libam33xx.o
 .rodata.emif_reg
                0x00000000        0x8 arch/arm/cpu/armv7/am33xx/libam33xx.o
 .rodata.dpll_ddr_regs
                0x00000000       0x24 arch/arm/cpu/armv7/am33xx/libam33xx.o
 .rodata.dpll_mpu
                0x00000000       0x10 arch/arm/cpu/armv7/am33xx/libam33xx.o
 .rodata.dpll_per_regs
                0x00000000       0x24 arch/arm/cpu/armv7/am33xx/libam33xx.o
 .rodata.cmdpll
                0x00000000        0x4 arch/arm/cpu/armv7/am33xx/libam33xx.o
 .rodata.cmper  0x00000000        0x4 arch/arm/cpu/armv7/am33xx/libam33xx.o
 .rodata.dpll_core_opp100
                0x00000000       0x10 arch/arm/cpu/armv7/am33xx/libam33xx.o
 .rodata.dpll_core_regs
                0x00000000       0x24 arch/arm/cpu/armv7/am33xx/libam33xx.o
 .rodata.dpll_core
                0x00000000       0x10 arch/arm/cpu/armv7/am33xx/libam33xx.o
 .rodata.dpll_per
                0x00000000       0x10 arch/arm/cpu/armv7/am33xx/libam33xx.o
 .rodata.dpll_mpu_regs
                0x00000000       0x24 arch/arm/cpu/armv7/am33xx/libam33xx.o
 .rodata.cmwkup
                0x00000000        0x4 arch/arm/cpu/armv7/am33xx/libam33xx.o
 .rodata.cmrtc  0x00000000        0x4 arch/arm/cpu/armv7/am33xx/libam33xx.o
 .data          0x00000000        0x0 arch/arm/cpu/armv7/am33xx/libam33xx.o
 .data.cstat    0x00000000        0x4 arch/arm/cpu/armv7/am33xx/libam33xx.o
 .data.dpll_mpu_opp100
                0x00000000       0x10 arch/arm/cpu/armv7/am33xx/libam33xx.o
 .bss           0x00000000        0x0 arch/arm/cpu/armv7/am33xx/libam33xx.o
 .text          0x00000000       0x24 arch/arm/cpu/armv7/libarmv7.o
 .text.mmu_page_table_flush
                0x00000000       0x24 arch/arm/cpu/armv7/libarmv7.o
 .text.__v7_outer_cache_inval_range
                0x00000000        0x4 arch/arm/cpu/armv7/libarmv7.o
 .text.invalidate_dcache_range
                0x00000000       0xac arch/arm/cpu/armv7/libarmv7.o
 .text.sr32     0x00000000       0x20 arch/arm/cpu/armv7/libarmv7.o
 .text.wait_on_value
                0x00000000       0x34 arch/arm/cpu/armv7/libarmv7.o
 .rodata.__func__.6165
                0x00000000       0x16 arch/arm/cpu/armv7/libarmv7.o
 .rodata.str1.1
                0x00000000       0x65 arch/arm/cpu/armv7/libarmv7.o
 .data          0x00000000        0x0 arch/arm/cpu/armv7/libarmv7.o
 .bss           0x00000000        0x0 arch/arm/cpu/armv7/libarmv7.o
 .text.warm_reset
                0x00000000       0x20 arch/arm/cpu/armv7/omap-common/libomap-common.o
 .text.setup_warmreset_time
                0x00000000        0x4 arch/arm/cpu/armv7/omap-common/libomap-common.o
 .text.do_cancel_out
                0x00000000       0x64 arch/arm/cpu/armv7/omap-common/libomap-common.o
 .text.cancel_out
                0x00000000       0xa8 arch/arm/cpu/armv7/omap-common/libomap-common.o
 .text.save_omap_boot_params
                0x00000000       0x50 arch/arm/cpu/armv7/omap-common/libomap-common.o
 .data          0x00000000        0x0 arch/arm/cpu/armv7/omap-common/libomap-common.o
 .bss           0x00000000        0x0 arch/arm/cpu/armv7/omap-common/libomap-common.o
 .text.__red_led_off
                0x00000000        0x4 arch/arm/lib/libarm.o
 .text.__green_led_on
                0x00000000        0x4 arch/arm/lib/libarm.o
 .text.__green_led_off
                0x00000000        0x4 arch/arm/lib/libarm.o
 .text.__yellow_led_on
                0x00000000        0x4 arch/arm/lib/libarm.o
 .text.__yellow_led_off
                0x00000000        0x4 arch/arm/lib/libarm.o
 .text.__blue_led_on
                0x00000000        0x4 arch/arm/lib/libarm.o
 .text.__blue_led_off
                0x00000000        0x4 arch/arm/lib/libarm.o
 .text.__dram_init_banksize
                0x00000000       0x1c arch/arm/lib/libarm.o
 .text.__flush_cache
                0x00000000        0x4 arch/arm/lib/libarm.o
 .text.__flush_dcache_all
                0x00000000        0xc arch/arm/lib/libarm.o
 .text.__enable_caches
                0x00000000        0xc arch/arm/lib/libarm.o
 .text.__arm_init_before_mmu
                0x00000000        0x4 arch/arm/lib/libarm.o
 .text.__mmu_page_table_flush
                0x00000000        0x4 arch/arm/lib/libarm.o
 .text.mmu_set_region_dcache_behaviour
                0x00000000       0x50 arch/arm/lib/libarm.o
 .text.icache_enable
                0x00000000       0x18 arch/arm/lib/libarm.o
 .text.icache_status
                0x00000000        0xc arch/arm/lib/libarm.o
 .text.dcache_status
                0x00000000        0xc arch/arm/lib/libarm.o
 .data          0x00000000        0x0 arch/arm/lib/libarm.o
 .bss           0x00000000        0x0 arch/arm/lib/libarm.o
 .text          0x00000000        0x0 common/libcommon.o
 .text.bootz_setup
                0x00000000       0x18 common/libcommon.o
 .text.eeprom_probe
                0x00000000        0xc common/libcommon.o
 .text.i2c_init_board
                0x00000000        0x4 common/libcommon.o
 .text.serial_printf
                0x00000000       0x40 common/libcommon.o
 .text.fputc    0x00000000       0x20 common/libcommon.o
 .text.fputs    0x00000000       0x20 common/libcommon.o
 .text.fprintf  0x00000000       0x48 common/libcommon.o
 .text.disable_ctrlc
                0x00000000       0x18 common/libcommon.o
 .text.dbg      0x00000000        0xc common/libcommon.o
 .text.stdio_print_current_devices
                0x00000000       0xb0 common/libcommon.o
 .text.valloc   0x00000000        0xc common/libcommon.o
 .text.pvalloc  0x00000000       0x18 common/libcommon.o
 .text.malloc_usable_size
                0x00000000       0x3c common/libcommon.o
 .text.mallopt  0x00000000       0x68 common/libcommon.o
 .text.env_flags_parse_varaccess_from_binflags
                0x00000000       0x28 common/libcommon.o
 .text.of_bus_default_map
                0x00000000       0xdc common/libcommon.o
 .text.of_bus_default_count_cells
                0x00000000       0x74 common/libcommon.o
 .text.of_bus_default_translate
                0x00000000       0xa0 common/libcommon.o
 .text.fdt_getprop_u32_default
                0x00000000       0x48 common/libcommon.o
 .text.do_fixup_by_path_u32
                0x00000000       0x2c common/libcommon.o
 .text.do_fixup_by_prop
                0x00000000       0x98 common/libcommon.o
 .text.do_fixup_by_prop_u32
                0x00000000       0x3c common/libcommon.o
 .text.do_fixup_by_compat
                0x00000000       0x88 common/libcommon.o
 .text.do_fixup_by_compat_u32
                0x00000000       0x2c common/libcommon.o
 .text.fdt_increase_size
                0x00000000       0x14 common/libcommon.o
 .text.fdt_del_node_and_alias
                0x00000000       0x44 common/libcommon.o
 .text.fdt_translate_address
                0x00000000      0x29c common/libcommon.o
 .text.fdt_node_offset_by_compat_reg
                0x00000000       0x88 common/libcommon.o
 .text.fdt_alloc_phandle
                0x00000000       0x58 common/libcommon.o
 .text.fdt_set_phandle
                0x00000000       0x60 common/libcommon.o
 .text.fdt_create_phandle
                0x00000000       0x64 common/libcommon.o
 .text.fdt_set_node_status
                0x00000000      0x118 common/libcommon.o
 .text.fdt_set_status_by_alias
                0x00000000       0x2c common/libcommon.o
 .text.fdt_verify_alias_address
                0x00000000       0xcc common/libcommon.o
 .text.fdt_get_base_address
                0x00000000       0x7c common/libcommon.o
 .text.hash_block
                0x00000000       0x74 common/libcommon.o
 .text.unset_local_var
                0x00000000       0xa0 common/libcommon.o
 .text.arch_fixup_memory_node
                0x00000000        0x8 common/libcommon.o
 .text.get_table_entry_id
                0x00000000       0x4c common/libcommon.o
 .text.genimg_get_os_id
                0x00000000       0x18 common/libcommon.o
 .text.genimg_get_arch_id
                0x00000000       0x18 common/libcommon.o
 .text.genimg_get_type_id
                0x00000000       0x18 common/libcommon.o
 .text.genimg_get_comp_id
                0x00000000       0x18 common/libcommon.o
 .text.parse_line
                0x00000000       0x88 common/libcommon.o
 .text.legacy_miiphy_read
                0x00000000       0x34 common/libcommon.o
 .text.legacy_miiphy_write
                0x00000000       0x1c common/libcommon.o
 .text.mdio_alloc
                0x00000000       0x30 common/libcommon.o
 .text.miiphy_register
                0x00000000      0x108 common/libcommon.o
 .text.mdio_register
                0x00000000       0xa0 common/libcommon.o
 .text.__splash_screen_prepare
                0x00000000        0x8 common/libcommon.o
 .text.usb_submit_int_msg
                0x00000000        0x4 common/libcommon.o
 .text.usb_set_protocol
                0x00000000       0x4c common/libcommon.o
 .text.usb_set_idle
                0x00000000       0x50 common/libcommon.o
 .text.usb_get_report
                0x00000000       0x58 common/libcommon.o
 .text.usb_get_class_descriptor
                0x00000000       0x58 common/libcommon.o
 .rodata.__FUNCTION__.7192
                0x00000000       0x17 common/libcommon.o
 .rodata.__FUNCTION__.6721
                0x00000000       0x10 common/libcommon.o
 .data          0x00000000        0x0 common/libcommon.o
 .data.mmap_threshold
                0x00000000        0x4 common/libcommon.o
 .data.of_busses
                0x00000000       0x14 common/libcommon.o
 .data.hash_algo
                0x00000000       0x10 common/libcommon.o
 .bss           0x00000000        0x0 common/libcommon.o
 .bss.n_mmaps_max
                0x00000000        0x4 common/libcommon.o
 .bss.save_addr
                0x00000000        0x4 common/libcommon.o
 .bss.save_size
                0x00000000        0x4 common/libcommon.o
 .text          0x00000000        0x0 disk/libdisk.o
 .data          0x00000000        0x0 disk/libdisk.o
 .bss           0x00000000        0x0 disk/libdisk.o
 .text          0x00000000        0x0 drivers/dfu/libdfu.o
 .text.dfu_get_alt
                0x00000000       0x64 drivers/dfu/libdfu.o
 .data          0x00000000        0x0 drivers/dfu/libdfu.o
 .bss           0x00000000        0x0 drivers/dfu/libdfu.o
 .text          0x00000000        0x0 drivers/gpio/libgpio.o
 .text.gpio_set_value
                0x00000000       0x48 drivers/gpio/libgpio.o
 .data          0x00000000        0x0 drivers/gpio/libgpio.o
 .bss           0x00000000        0x0 drivers/gpio/libgpio.o
 .text          0x00000000        0x0 drivers/i2c/libi2c.o
 .bss           0x00000000        0x0 drivers/i2c/libi2c.o
 .text          0x00000000        0x0 drivers/input/libinput.o
 .text.input_tstc
                0x00000000       0x48 drivers/input/libinput.o
 .text.input_getc
                0x00000000       0x58 drivers/input/libinput.o
 .text.input_send_keycodes
                0x00000000      0x3bc drivers/input/libinput.o
 .text.input_add_table
                0x00000000       0x40 drivers/input/libinput.o
 .text.input_set_delays
                0x00000000        0xc drivers/input/libinput.o
 .text.input_init
                0x00000000       0xdc drivers/input/libinput.o
 .text.input_stdio_register
                0x00000000       0x54 drivers/input/libinput.o
 .rodata.kbd_to_ansi364
                0x00000000       0x20 drivers/input/libinput.o
 .rodata.kbd_plain_xlate
                0x00000000       0x63 drivers/input/libinput.o
 .rodata.str1.1
                0x00000000       0x16 drivers/input/libinput.o
 .rodata.CSWTCH.28
                0x00000000        0xd drivers/input/libinput.o
 .data          0x00000000        0x0 drivers/input/libinput.o
 .data.kbd_ctrl_xlate
                0x00000000       0x63 drivers/input/libinput.o
 .data.kbd_shift_xlate
                0x00000000       0x63 drivers/input/libinput.o
 .bss           0x00000000        0x0 drivers/input/libinput.o
 .comment       0x00000000       0x60 drivers/input/libinput.o
 .note.GNU-stack
                0x00000000        0x0 drivers/input/libinput.o
 .ARM.attributes
                0x00000000       0x2f drivers/input/libinput.o
 .debug_aranges
                0x00000000       0x50 drivers/input/libinput.o
 .debug_info    0x00000000     0x10f3 drivers/input/libinput.o
 .debug_abbrev  0x00000000      0x3d1 drivers/input/libinput.o
 .debug_line    0x00000000      0x3d7 drivers/input/libinput.o
 .debug_frame   0x00000000       0xd0 drivers/input/libinput.o
 .debug_str     0x00000000      0x775 drivers/input/libinput.o
 .debug_loc     0x00000000      0xb5a drivers/input/libinput.o
 .debug_ranges  0x00000000      0x1b0 drivers/input/libinput.o
 .text          0x00000000        0x0 drivers/mmc/libmmc.o
 .text.mmc_set_preinit
                0x00000000        0x8 drivers/mmc/libmmc.o
 .text.mmc_board_init
                0x00000000        0x8 drivers/mmc/libmmc.o
 .data          0x00000000        0x0 drivers/mmc/libmmc.o
 .bss           0x00000000        0x0 drivers/mmc/libmmc.o
 .text          0x00000000        0x0 drivers/mtd/libmtd.o
 .text.mtd_panic_write
                0x00000000       0xa0 drivers/mtd/libmtd.o
 .data          0x00000000        0x0 drivers/mtd/libmtd.o
 .bss           0x00000000        0x0 drivers/mtd/libmtd.o
 .text          0x00000000        0x0 drivers/mtd/nand/libnand.o
 .text.nand_release
                0x00000000       0x48 drivers/mtd/nand/libnand.o
 .text.omap_correct_data
                0x00000000      0x130 drivers/mtd/nand/libnand.o
 .text.omap_nand_switch_ecc
                0x00000000      0x250 drivers/mtd/nand/libnand.o
 .rodata.nand_manuf_ids
                0x00000000       0x60 drivers/mtd/nand/libnand.o
 .data          0x00000000        0x0 drivers/mtd/nand/libnand.o
 .bss           0x00000000        0x0 drivers/mtd/nand/libnand.o
 .text          0x00000000        0x0 drivers/mtd/spi/libspi_flash.o
 .text.spi_flash_cmd_write_status
                0x00000000       0x2c drivers/mtd/spi/libspi_flash.o
 .text.spi_flash_set_qeb_mxic
                0x00000000       0x84 drivers/mtd/spi/libspi_flash.o
 .data          0x00000000        0x0 drivers/mtd/spi/libspi_flash.o
 .bss           0x00000000        0x0 drivers/mtd/spi/libspi_flash.o
 .text          0x00000000        0x0 drivers/mtd/ubi/libubi.o
 .text.ubi_get_by_major
                0x00000000       0x50 drivers/mtd/ubi/libubi.o
 .text.ubi_major2num
                0x00000000       0x44 drivers/mtd/ubi/libubi.o
 .text.ubi_remove_volume
                0x00000000      0x140 drivers/mtd/ubi/libubi.o
 .text.ubi_start_leb_change
                0x00000000       0x88 drivers/mtd/ubi/libubi.o
 .text.ubi_more_leb_change_data
                0x00000000      0x118 drivers/mtd/ubi/libubi.o
 .text.ubi_leb_write
                0x00000000       0xe8 drivers/mtd/ubi/libubi.o
 .text.ubi_leb_change
                0x00000000       0xd8 drivers/mtd/ubi/libubi.o
 .text.ubi_leb_erase
                0x00000000       0x7c drivers/mtd/ubi/libubi.o
 .text.ubi_leb_map
                0x00000000       0xa0 drivers/mtd/ubi/libubi.o
 .text.ubi_eba_atomic_leb_change
                0x00000000      0x2d4 drivers/mtd/ubi/libubi.o
 .text.ubi_thread
                0x00000000       0xcc drivers/mtd/ubi/libubi.o
 .rodata.__func__.7313
                0x00000000       0x12 drivers/mtd/ubi/libubi.o
 .rodata.__func__.7429
                0x00000000       0x1a drivers/mtd/ubi/libubi.o
 .rodata.__func__.7503
                0x00000000        0xb drivers/mtd/ubi/libubi.o
 .data          0x00000000        0x0 drivers/mtd/ubi/libubi.o
 .bss           0x00000000        0x0 drivers/mtd/ubi/libubi.o
 .text          0x00000000        0x0 drivers/net/phy/libphy.o
 .text.generic_ffs
                0x00000000       0x50 drivers/net/phy/libphy.o
 .text.phy_device_create
                0x00000000       0xe4 drivers/net/phy/libphy.o
 .text.get_phy_device_by_mask
                0x00000000      0x140 drivers/net/phy/libphy.o
 .text.genphy_config
                0x00000000       0xb4 drivers/net/phy/libphy.o
 .text.genphy_parse_link
                0x00000000      0x190 drivers/net/phy/libphy.o
 .text.genphy_startup
                0x00000000       0x1c drivers/net/phy/libphy.o
 .text.phy_reset
                0x00000000       0xac drivers/net/phy/libphy.o
 .text.miiphy_reset
                0x00000000       0x24 drivers/net/phy/libphy.o
 .text.phy_find_by_mask
                0x00000000       0x3c drivers/net/phy/libphy.o
 .text.phy_connect_dev
                0x00000000       0x44 drivers/net/phy/libphy.o
 .text.phy_connect
                0x00000000       0x50 drivers/net/phy/libphy.o
 .text.phy_startup
                0x00000000       0x1c drivers/net/phy/libphy.o
 .text.__board_phy_config
                0x00000000       0x1c drivers/net/phy/libphy.o
 .text.phy_config
                0x00000000       0x10 drivers/net/phy/libphy.o
 .text.phy_shutdown
                0x00000000       0x20 drivers/net/phy/libphy.o
 .data          0x00000000        0x0 drivers/net/phy/libphy.o
 .data.genphy_driver
                0x00000000       0x2c drivers/net/phy/libphy.o
 .bss           0x00000000        0x0 drivers/net/phy/libphy.o
 .text          0x00000000        0x0 drivers/pcmcia/libpcmcia.o
 .data          0x00000000        0x0 drivers/pcmcia/libpcmcia.o
 .bss           0x00000000        0x0 drivers/pcmcia/libpcmcia.o
 .comment       0x00000000       0xc0 drivers/pcmcia/libpcmcia.o
 .note.GNU-stack
                0x00000000        0x0 drivers/pcmcia/libpcmcia.o
 .ARM.attributes
                0x00000000       0x2f drivers/pcmcia/libpcmcia.o
 .debug_aranges
                0x00000000       0x30 drivers/pcmcia/libpcmcia.o
 .debug_info    0x00000000      0x502 drivers/pcmcia/libpcmcia.o
 .debug_abbrev  0x00000000      0x1aa drivers/pcmcia/libpcmcia.o
 .debug_line    0x00000000      0x316 drivers/pcmcia/libpcmcia.o
 .debug_str     0x00000000      0x723 drivers/pcmcia/libpcmcia.o
 .text          0x00000000        0x0 drivers/power/pmic/libpmic.o
 .text.tps65910_set_i2c_control
                0x00000000       0x54 drivers/power/pmic/libpmic.o
 .text.tps65910_voltage_update
                0x00000000       0xec drivers/power/pmic/libpmic.o
 .data          0x00000000        0x0 drivers/power/pmic/libpmic.o
 .bss           0x00000000        0x0 drivers/power/pmic/libpmic.o
 .comment       0x00000000       0x60 drivers/power/pmic/libpmic.o
 .note.GNU-stack
                0x00000000        0x0 drivers/power/pmic/libpmic.o
 .ARM.attributes
                0x00000000       0x2f drivers/power/pmic/libpmic.o
 .debug_aranges
                0x00000000       0x28 drivers/power/pmic/libpmic.o
 .debug_info    0x00000000      0x4e8 drivers/power/pmic/libpmic.o
 .debug_abbrev  0x00000000      0x18a drivers/power/pmic/libpmic.o
 .debug_line    0x00000000      0x276 drivers/power/pmic/libpmic.o
 .debug_frame   0x00000000       0x4c drivers/power/pmic/libpmic.o
 .debug_str     0x00000000      0x46b drivers/power/pmic/libpmic.o
 .debug_loc     0x00000000       0x94 drivers/power/pmic/libpmic.o
 .debug_ranges  0x00000000       0x18 drivers/power/pmic/libpmic.o
 .text          0x00000000        0x0 drivers/rtc/librtc.o
 .data          0x00000000        0x0 drivers/rtc/librtc.o
 .bss           0x00000000        0x0 drivers/rtc/librtc.o
 .comment       0x00000000       0x60 drivers/rtc/librtc.o
 .note.GNU-stack
                0x00000000        0x0 drivers/rtc/librtc.o
 .ARM.attributes
                0x00000000       0x2f drivers/rtc/librtc.o
 .debug_aranges
                0x00000000       0x18 drivers/rtc/librtc.o
 .debug_info    0x00000000      0x281 drivers/rtc/librtc.o
 .debug_abbrev  0x00000000       0xd5 drivers/rtc/librtc.o
 .debug_line    0x00000000      0x18b drivers/rtc/librtc.o
 .debug_str     0x00000000      0x387 drivers/rtc/librtc.o
 .text          0x00000000        0x0 drivers/serial/libserial.o
 .text.serial_reinit_all
                0x00000000       0x2c drivers/serial/libserial.o
 .text.default_serial_puts
                0x00000000       0x30 drivers/serial/libserial.o
 .text._serial_putc_raw
                0x00000000       0x1c drivers/serial/libserial.o
 .data          0x00000000        0x0 drivers/serial/libserial.o
 .bss           0x00000000        0x0 drivers/serial/libserial.o
 .text          0x00000000        0x0 drivers/spi/libspi.o
 .text.spi_cs_is_valid
                0x00000000        0x8 drivers/spi/libspi.o
 .text.spi_cs_activate
                0x00000000        0x4 drivers/spi/libspi.o
 .text.spi_cs_deactivate
                0x00000000        0x4 drivers/spi/libspi.o
 .data          0x00000000        0x0 drivers/spi/libspi.o
 .bss           0x00000000        0x0 drivers/spi/libspi.o
 .text          0x00000000        0x0 drivers/usb/gadget/libusb_gadget.o
 .text.fsg_add  0x00000000        0x8 drivers/usb/gadget/libusb_gadget.o
 .text.thor_add
                0x00000000        0x8 drivers/usb/gadget/libusb_gadget.o
 .text.usb_function_deactivate
                0x00000000       0x58 drivers/usb/gadget/libusb_gadget.o
 .text.usb_function_activate
                0x00000000       0x58 drivers/usb/gadget/libusb_gadget.o
 .text.usb_string_ids_tab
                0x00000000       0x40 drivers/usb/gadget/libusb_gadget.o
 .text.usb_string_ids_n
                0x00000000       0x2c drivers/usb/gadget/libusb_gadget.o
 .data          0x00000000        0x0 drivers/usb/gadget/libusb_gadget.o
 .bss           0x00000000        0x0 drivers/usb/gadget/libusb_gadget.o
 .text          0x00000000        0x0 drivers/usb/musb-new/libusb_musb-new.o
 .text.musb_gadget_cleanup
                0x00000000        0x4 drivers/usb/musb-new/libusb_musb-new.o
 .text.musb_g_resume
                0x00000000        0x4 drivers/usb/musb-new/libusb_musb-new.o
 .text.musb_g_suspend
                0x00000000        0x4 drivers/usb/musb-new/libusb_musb-new.o
 .text.musb_g_wakeup
                0x00000000        0x4 drivers/usb/musb-new/libusb_musb-new.o
 .text.musb_g_disconnect
                0x00000000       0x54 drivers/usb/musb-new/libusb_musb-new.o
 .text.musb_g_reset
                0x00000000       0x8c drivers/usb/musb-new/libusb_musb-new.o
 .data          0x00000000        0x0 drivers/usb/musb-new/libusb_musb-new.o
 .bss           0x00000000        0x0 drivers/usb/musb-new/libusb_musb-new.o
 .text          0x00000000        0x0 fs/ext4/libext4fs.o
 .data          0x00000000        0x0 fs/ext4/libext4fs.o
 .bss           0x00000000        0x0 fs/ext4/libext4fs.o
 .bss.ext4fs_symlinknest
                0x00000000        0x4 fs/ext4/libext4fs.o
 .bss.g_parent_inode
                0x00000000        0x4 fs/ext4/libext4fs.o
 .text          0x00000000        0x0 fs/fat/libfat.o
 .text.fat_register_device
                0x00000000       0x8c fs/fat/libfat.o
 .text.file_fat_read
                0x00000000       0x14 fs/fat/libfat.o
 .text.file_getfsname
                0x00000000       0x14 fs/fat/libfat.o
 .text.file_cd  0x00000000      0x1bc fs/fat/libfat.o
 .text.file_detectfs
                0x00000000       0x40 fs/fat/libfat.o
 .text.file_ls  0x00000000       0x98 fs/fat/libfat.o
 .text.file_read
                0x00000000       0xa4 fs/fat/libfat.o
 .rodata.filesystems
                0x00000000       0x18 fs/fat/libfat.o
 .data          0x00000000        0x0 fs/fat/libfat.o
 .data.file_cwd
                0x00000000      0x200 fs/fat/libfat.o
 .data.current_filesystem
                0x00000000        0x4 fs/fat/libfat.o
 .bss           0x00000000        0x0 fs/fat/libfat.o
 .text          0x00000000        0x0 fs/libfs.o
 .text.fs_write
                0x00000000       0x84 fs/libfs.o
 .text.do_save  0x00000000      0x128 fs/libfs.o
 .data          0x00000000        0x0 fs/libfs.o
 .bss           0x00000000        0x0 fs/libfs.o
 .text          0x00000000        0x0 fs/ubifs/libubifs.o
 .text.ubifs_ro_mode
                0x00000000       0x3c fs/ubifs/libubifs.o
 .text.ubifs_prepare_node
                0x00000000      0x11c fs/ubifs/libubifs.o
 .text.ubifs_lpt_lookup
                0x00000000       0x9c fs/ubifs/libubifs.o
 .text.ubifs_ensure_cat
                0x00000000       0x4c fs/ubifs/libubifs.o
 .text.ubifs_get_lp_stats
                0x00000000       0x18 fs/ubifs/libubifs.o
 .text.ubifs_change_one_lp
                0x00000000       0x60 fs/ubifs/libubifs.o
 .text.ubifs_read_one_lp
                0x00000000       0x30 fs/ubifs/libubifs.o
 .text.ubifs_fast_find_free
                0x00000000       0x18 fs/ubifs/libubifs.o
 .text.ubifs_fast_find_empty
                0x00000000       0x14 fs/ubifs/libubifs.o
 .text.ubifs_fast_find_freeable
                0x00000000       0x14 fs/ubifs/libubifs.o
 .text.ubifs_fast_find_frdi_idx
                0x00000000       0x14 fs/ubifs/libubifs.o
 .text.destroy_old_idx
                0x00000000       0x60 fs/ubifs/libubifs.o
 .text.ubifs_tnc_get_bu_keys
                0x00000000      0x258 fs/ubifs/libubifs.o
 .text.ubifs_tnc_bulk_read
                0x00000000      0x21c fs/ubifs/libubifs.o
 .text.ubifs_tnc_lookup_nm
                0x00000000       0xd0 fs/ubifs/libubifs.o
 .text.ubifs_tnc_replace
                0x00000000      0x2ec fs/ubifs/libubifs.o
 .text.ubifs_tnc_levelorder_next
                0x00000000      0x14c fs/ubifs/libubifs.o
 .text.ubifs_tnc_postorder_first
                0x00000000       0x4c fs/ubifs/libubifs.o
 .text.ubifs_tnc_postorder_next
                0x00000000       0x4c fs/ubifs/libubifs.o
 .text.recover_head
                0x00000000      0x11c fs/ubifs/libubifs.o
 .text.ubifs_write_rcvrd_mst_node
                0x00000000       0xb8 fs/ubifs/libubifs.o
 .text.ubifs_recover_inl_heads
                0x00000000       0x3c fs/ubifs/libubifs.o
 .text.ubifs_clean_lebs
                0x00000000      0x218 fs/ubifs/libubifs.o
 .rodata.__func__.8667
                0x00000000        0xe fs/ubifs/libubifs.o
 .rodata.__func__.8996
                0x00000000       0x14 fs/ubifs/libubifs.o
 .rodata.__func__.8983
                0x00000000       0x13 fs/ubifs/libubifs.o
 .data          0x00000000        0x0 fs/ubifs/libubifs.o
 .bss           0x00000000        0x0 fs/ubifs/libubifs.o
 .text          0x00000000        0x0 lib/libfdt/libfdt.o
 .text.fdt_first_subnode
                0x00000000       0x34 lib/libfdt/libfdt.o
 .text.fdt_next_subnode
                0x00000000       0x50 lib/libfdt/libfdt.o
 .text.fdt_create_empty_tree
                0x00000000       0x74 lib/libfdt/libfdt.o
 .text.fdt_subnode_offset
                0x00000000       0x30 lib/libfdt/libfdt.o
 .text.fdt_getprop_by_offset
                0x00000000       0x48 lib/libfdt/libfdt.o
 .text.fdt_get_phandle
                0x00000000       0x70 lib/libfdt/libfdt.o
 .text.fdt_get_alias
                0x00000000       0x28 lib/libfdt/libfdt.o
 .text.fdt_get_path
                0x00000000      0x138 lib/libfdt/libfdt.o
 .text.fdt_parent_offset
                0x00000000       0x30 lib/libfdt/libfdt.o
 .text.fdt_node_offset_by_prop_value
                0x00000000       0x9c lib/libfdt/libfdt.o
 .text.fdt_node_offset_by_phandle
                0x00000000       0x78 lib/libfdt/libfdt.o
 .text.fdt_stringlist_contains
                0x00000000       0x7c lib/libfdt/libfdt.o
 .text.fdt_node_check_compatible
                0x00000000       0x40 lib/libfdt/libfdt.o
 .text.fdt_node_offset_by_compatible
                0x00000000       0x74 lib/libfdt/libfdt.o
 .text.fdt_set_name
                0x00000000       0x88 lib/libfdt/libfdt.o
 .text.fdt_appendprop
                0x00000000       0xd0 lib/libfdt/libfdt.o
 .text.fdt_pack
                0x00000000       0x5c lib/libfdt/libfdt.o
 .text._fdt_sw_check_header
                0x00000000       0x1c lib/libfdt/libfdt.o
 .text._fdt_grab_space
                0x00000000       0x6c lib/libfdt/libfdt.o
 .text.fdt_create
                0x00000000       0x64 lib/libfdt/libfdt.o
 .text.fdt_add_reservemap_entry
                0x00000000       0x90 lib/libfdt/libfdt.o
 .text.fdt_finish_reservemap
                0x00000000       0x1c lib/libfdt/libfdt.o
 .text.fdt_begin_node
                0x00000000       0x68 lib/libfdt/libfdt.o
 .text.fdt_end_node
                0x00000000       0x40 lib/libfdt/libfdt.o
 .text.fdt_property
                0x00000000      0x114 lib/libfdt/libfdt.o
 .text.fdt_finish
                0x00000000      0x100 lib/libfdt/libfdt.o
 .text.fdt_setprop_inplace
                0x00000000       0x44 lib/libfdt/libfdt.o
 .text.fdt_nop_property
                0x00000000       0x40 lib/libfdt/libfdt.o
 .text.fdt_nop_node
                0x00000000       0x50 lib/libfdt/libfdt.o
 .text.fdt_find_regions
                0x00000000      0x39c lib/libfdt/libfdt.o
 .data          0x00000000        0x0 lib/libfdt/libfdt.o
 .bss           0x00000000        0x0 lib/libfdt/libfdt.o
 .text          0x00000000        0x0 lib/libgeneric.o
 .text.crc32_wd_buf
                0x00000000       0x40 lib/libgeneric.o
 .text.crc7     0x00000000       0x24 lib/libgeneric.o
 .text.display_options
                0x00000000       0x20 lib/libgeneric.o
 .text.initcall_run_list
                0x00000000       0x2c lib/libgeneric.o
 .text.ldiv     0x00000000       0x50 lib/libgeneric.o
 .text.lmb_dump_all
                0x00000000        0x4 lib/libgeneric.o
 .text.lmb_is_reserved
                0x00000000       0x5c lib/libgeneric.o
 .text.__arch_lmb_reserve
                0x00000000        0x4 lib/libgeneric.o
 .text.rb_prev  0x00000000       0x64 lib/libgeneric.o
 .text.rb_replace_node
                0x00000000       0x60 lib/libgeneric.o
 .text.strncasecmp
                0x00000000       0x9c lib/libgeneric.o
 .text.strcasecmp
                0x00000000        0x8 lib/libgeneric.o
 .text.strspn   0x00000000       0x3c lib/libgeneric.o
 .text.strtok   0x00000000       0x88 lib/libgeneric.o
 .text.strswab  0x00000000       0x48 lib/libgeneric.o
 .text.bcopy    0x00000000       0x24 lib/libgeneric.o
 .text.memscan  0x00000000       0x2c lib/libgeneric.o
 .text.strmhz   0x00000000       0x64 lib/libgeneric.o
 .text.ustrtoul
                0x00000000       0x70 lib/libgeneric.o
 .text.__assert_fail
                0x00000000       0x14 lib/libgeneric.o
 .text.print_grouped_ull
                0x00000000       0x88 lib/libgeneric.o
 .rodata.crc7_syndrome_table
                0x00000000      0x100 lib/libgeneric.o
 .data          0x00000000        0x0 lib/libgeneric.o
 .bss           0x00000000        0x0 lib/libgeneric.o
 .bss.___strtok
                0x00000000        0x4 lib/libgeneric.o
 .text          0x00000000        0x0 lib/lzo/liblzo.o
 .data          0x00000000        0x0 lib/lzo/liblzo.o
 .bss           0x00000000        0x0 lib/lzo/liblzo.o
 .text          0x00000000        0x0 lib/zlib/libz.o
 .text.inflateInit_
                0x00000000       0x14 lib/zlib/libz.o
 .rodata.z_errmsg
                0x00000000       0x28 lib/zlib/libz.o
 .data          0x00000000        0x0 lib/zlib/libz.o
 .bss           0x00000000        0x0 lib/zlib/libz.o
 .text          0x00000000        0x0 net/libnet.o
 .text.eth_get_dev_by_name
                0x00000000       0x84 net/libnet.o
 .text.eth_unregister
                0x00000000       0x8c net/libnet.o
 .text.net_get_udp_handler
                0x00000000       0x10 net/libnet.o
 .text.net_set_arp_handler
                0x00000000       0x20 net/libnet.o
 .text.random_port
                0x00000000       0x18 net/libnet.o
 .text.VLAN_to_string
                0x00000000       0x3c net/libnet.o
 .rodata.__FUNCTION__.6666
                0x00000000       0x14 net/libnet.o
 .data          0x00000000        0x0 net/libnet.o
 .data.TftpRRQTimeoutMSecs
                0x00000000        0x4 net/libnet.o
 .bss           0x00000000        0x0 net/libnet.o
 .bss.net_busy_flag
                0x00000000        0x4 net/libnet.o
 .text          0x00000000        0x0 /home/ru/Knobloch/wrk/BuildRoot/ft-TXT/board/knobloch/TXT/board-support/u-boot-2013.10-ti2013.12.01/arch/arm/lib/eabi_compat.o
 .data          0x00000000        0x0 /home/ru/Knobloch/wrk/BuildRoot/ft-TXT/board/knobloch/TXT/board-support/u-boot-2013.10-ti2013.12.01/arch/arm/lib/eabi_compat.o
 .bss           0x00000000        0x0 /home/ru/Knobloch/wrk/BuildRoot/ft-TXT/board/knobloch/TXT/board-support/u-boot-2013.10-ti2013.12.01/arch/arm/lib/eabi_compat.o
 .text.__aeabi_unwind_cpp_pr0
                0x00000000        0x4 /home/ru/Knobloch/wrk/BuildRoot/ft-TXT/board/knobloch/TXT/board-support/u-boot-2013.10-ti2013.12.01/arch/arm/lib/eabi_compat.o
 .text.__aeabi_unwind_cpp_pr1
                0x00000000        0x4 /home/ru/Knobloch/wrk/BuildRoot/ft-TXT/board/knobloch/TXT/board-support/u-boot-2013.10-ti2013.12.01/arch/arm/lib/eabi_compat.o
 .data          0x00000000        0x0 /home/ru/Knobloch/wrk/BuildRoot/ft-TXT/output/host/opt/ext-toolchain/bin/../lib/gcc/arm-linux-gnueabihf/4.9.1/libgcc.a(_udivsi3.o)
 .bss           0x00000000        0x0 /home/ru/Knobloch/wrk/BuildRoot/ft-TXT/output/host/opt/ext-toolchain/bin/../lib/gcc/arm-linux-gnueabihf/4.9.1/libgcc.a(_udivsi3.o)
 .data          0x00000000        0x0 /home/ru/Knobloch/wrk/BuildRoot/ft-TXT/output/host/opt/ext-toolchain/bin/../lib/gcc/arm-linux-gnueabihf/4.9.1/libgcc.a(_divsi3.o)
 .bss           0x00000000        0x0 /home/ru/Knobloch/wrk/BuildRoot/ft-TXT/output/host/opt/ext-toolchain/bin/../lib/gcc/arm-linux-gnueabihf/4.9.1/libgcc.a(_divsi3.o)
 .data          0x00000000        0x0 /home/ru/Knobloch/wrk/BuildRoot/ft-TXT/output/host/opt/ext-toolchain/bin/../lib/gcc/arm-linux-gnueabihf/4.9.1/libgcc.a(_lshrdi3.o)
 .bss           0x00000000        0x0 /home/ru/Knobloch/wrk/BuildRoot/ft-TXT/output/host/opt/ext-toolchain/bin/../lib/gcc/arm-linux-gnueabihf/4.9.1/libgcc.a(_lshrdi3.o)
 .data          0x00000000        0x0 /home/ru/Knobloch/wrk/BuildRoot/ft-TXT/output/host/opt/ext-toolchain/bin/../lib/gcc/arm-linux-gnueabihf/4.9.1/libgcc.a(_ashrdi3.o)
 .bss           0x00000000        0x0 /home/ru/Knobloch/wrk/BuildRoot/ft-TXT/output/host/opt/ext-toolchain/bin/../lib/gcc/arm-linux-gnueabihf/4.9.1/libgcc.a(_ashrdi3.o)
 .data          0x00000000        0x0 /home/ru/Knobloch/wrk/BuildRoot/ft-TXT/output/host/opt/ext-toolchain/bin/../lib/gcc/arm-linux-gnueabihf/4.9.1/libgcc.a(_ashldi3.o)
 .bss           0x00000000        0x0 /home/ru/Knobloch/wrk/BuildRoot/ft-TXT/output/host/opt/ext-toolchain/bin/../lib/gcc/arm-linux-gnueabihf/4.9.1/libgcc.a(_ashldi3.o)
 .data          0x00000000        0x0 /home/ru/Knobloch/wrk/BuildRoot/ft-TXT/output/host/opt/ext-toolchain/bin/../lib/gcc/arm-linux-gnueabihf/4.9.1/libgcc.a(_dvmd_lnx.o)
 .bss           0x00000000        0x0 /home/ru/Knobloch/wrk/BuildRoot/ft-TXT/output/host/opt/ext-toolchain/bin/../lib/gcc/arm-linux-gnueabihf/4.9.1/libgcc.a(_dvmd_lnx.o)

Memory Configuration

Name             Origin             Length             Attributes
*default*        0x00000000         0xffffffff

Linker script and memory map

                0x00000000                . = 0x0
                0x00000000                . = ALIGN (0x4)

.text           0x80800000    0x54258
 *(.__image_copy_start)
 .__image_copy_start
                0x80800000        0x0 arch/arm/lib/libarm.o
                0x80800000                __image_copy_start
 arch/arm/cpu/armv7/start.o(.text*)
 .text          0x80800000      0x380 arch/arm/cpu/armv7/start.o
                0x80800000                _start
                0x80800040                _end_vect
                0x80800040                _TEXT_BASE
                0x80800044                _bss_start_ofs
                0x80800048                _bss_end_ofs
                0x8080004c                _end_ofs
                0x80800050                IRQ_STACK_START_IN
                0x8080008c                c_runtime_cpu_setup
                0x808000a8                cpu_init_cp15
 board/knobloch/TXT/libTXT.o(.text*)
 .text.board_init
                0x80800380       0x20 board/knobloch/TXT/libTXT.o
                0x80800380                board_init
 .text.board_late_init
                0x808003a0      0x1c8 board/knobloch/TXT/libTXT.o
                0x808003a0                board_late_init
 .text.board_eth_init
                0x80800568       0xac board/knobloch/TXT/libTXT.o
                0x80800568                board_eth_init
 *(.text*)
 .text.am335x_get_efuse_mpu_max_freq
                0x80800614       0xa0 arch/arm/cpu/armv7/am33xx/libam33xx.o
                0x80800614                am335x_get_efuse_mpu_max_freq
 .text.am33xx_otg0_set_phy_power
                0x808006b4       0x28 arch/arm/cpu/armv7/am33xx/libam33xx.o
 .text.am33xx_otg1_set_phy_power
                0x808006dc       0x28 arch/arm/cpu/armv7/am33xx/libam33xx.o
 .text.cpu_mmc_init
                0x80800704       0x48 arch/arm/cpu/armv7/am33xx/libam33xx.o
                0x80800704                cpu_mmc_init
 .text.arch_misc_init
                0x8080074c       0x44 arch/arm/cpu/armv7/am33xx/libam33xx.o
                0x8080074c                arch_misc_init
 .text.enable_caches
                0x80800790        0x4 arch/arm/cpu/armv7/am33xx/libam33xx.o
                0x80800790                enable_caches
 .text.dram_init
                0x80800794       0x20 arch/arm/cpu/armv7/am33xx/libam33xx.o
                0x80800794                dram_init
 .text.dram_init_banksize
                0x808007b4       0x1c arch/arm/cpu/armv7/am33xx/libam33xx.o
                0x808007b4                dram_init_banksize
 .text.v7_maint_dcache_all
                0x808007d0       0xd0 arch/arm/cpu/armv7/libarmv7.o
 .text.invalidate_icache_all
                0x808008a0       0x18 arch/arm/cpu/armv7/libarmv7.o
                0x808008a0                invalidate_icache_all
 .text.__v7_outer_cache_enable
                0x808008b8        0x4 arch/arm/cpu/armv7/libarmv7.o
                0x808008b8                __v7_outer_cache_enable
                0x808008b8                v7_outer_cache_enable
 .text.__v7_outer_cache_disable
                0x808008bc        0x4 arch/arm/cpu/armv7/libarmv7.o
                0x808008bc                v7_outer_cache_disable
                0x808008bc                __v7_outer_cache_disable
 .text.__v7_outer_cache_flush_all
                0x808008c0        0x4 arch/arm/cpu/armv7/libarmv7.o
                0x808008c0                __v7_outer_cache_flush_all
                0x808008c0                v7_outer_cache_flush_all
 .text.flush_dcache_all
                0x808008c4       0x14 arch/arm/cpu/armv7/libarmv7.o
                0x808008c4                flush_dcache_all
 .text.__v7_outer_cache_inval_all
                0x808008d8        0x4 arch/arm/cpu/armv7/libarmv7.o
                0x808008d8                v7_outer_cache_inval_all
                0x808008d8                __v7_outer_cache_inval_all
 .text.invalidate_dcache_all
                0x808008dc       0x14 arch/arm/cpu/armv7/libarmv7.o
                0x808008dc                invalidate_dcache_all
 .text.arm_init_before_mmu
                0x808008f0       0x28 arch/arm/cpu/armv7/libarmv7.o
                0x808008f0                arm_init_before_mmu
 .text.__v7_outer_cache_flush_range
                0x80800918        0x4 arch/arm/cpu/armv7/libarmv7.o
                0x80800918                v7_outer_cache_flush_range
                0x80800918                __v7_outer_cache_flush_range
 .text.flush_dcache_range
                0x8080091c       0x3c arch/arm/cpu/armv7/libarmv7.o
                0x8080091c                flush_dcache_range
 .text.flush_cache
                0x80800958        0x8 arch/arm/cpu/armv7/libarmv7.o
                0x80800958                flush_cache
 .text.cpu_cache_initialization
                0x80800960        0x4 arch/arm/cpu/armv7/libarmv7.o
                0x80800960                cpu_cache_initialization
 .text.cleanup_before_linux
                0x80800964       0x28 arch/arm/cpu/armv7/libarmv7.o
                0x80800964                cleanup_before_linux
 .text.sdelay   0x8080098c        0xc arch/arm/cpu/armv7/libarmv7.o
                0x8080098c                sdelay
 .text          0x80800998       0x38 arch/arm/cpu/armv7/omap-common/libomap-common.o
                0x80800998                save_boot_params
                0x808009a4                set_pl310_ctrl_reg
                0x808009b4                get_l2_aux_ctrl_reg
                0x808009b8                set_l2_aux_ctrl_reg
 .text.reset_cpu
                0x808009d0       0x14 arch/arm/cpu/armv7/omap-common/libomap-common.o
                0x808009d0                reset_cpu
 .text.timer_init
                0x808009e4       0x38 arch/arm/cpu/armv7/omap-common/libomap-common.o
                0x808009e4                timer_init
 .text.__udelay
                0x80800a1c       0x44 arch/arm/cpu/armv7/omap-common/libomap-common.o
                0x80800a1c                __udelay
 .text.get_timer_masked
                0x80800a60       0x40 arch/arm/cpu/armv7/omap-common/libomap-common.o
                0x80800a60                get_timer_masked
 .text.get_timer
                0x80800aa0       0x14 arch/arm/cpu/armv7/omap-common/libomap-common.o
                0x80800aa0                get_timer
 .text.get_ticks
                0x80800ab4       0x10 arch/arm/cpu/armv7/omap-common/libomap-common.o
                0x80800ab4                get_ticks
 .text.get_tbclk
                0x80800ac4        0x8 arch/arm/cpu/armv7/omap-common/libomap-common.o
                0x80800ac4                get_tbclk
 .text.enable_gpmc_cs_config
                0x80800acc       0x74 arch/arm/cpu/armv7/omap-common/libomap-common.o
                0x80800acc                enable_gpmc_cs_config
 .text.gpmc_init
                0x80800b40       0x90 arch/arm/cpu/armv7/omap-common/libomap-common.o
                0x80800b40                gpmc_init
 .text          0x80800bd0       0xe8 arch/arm/lib/libarm.o
                0x80800bd0                _main
                0x80800c54                relocate_code
 .text.__arch_cpu_init
                0x80800cb8        0x8 arch/arm/lib/libarm.o
                0x80800cb8                arch_cpu_init
                0x80800cb8                __arch_cpu_init
 .text.init_func_i2c
                0x80800cc0       0x34 arch/arm/lib/libarm.o
 .text.display_banner
                0x80800cf4       0x20 arch/arm/lib/libarm.o
 .text.init_baudrate
                0x80800d14       0x2c arch/arm/lib/libarm.o
 .text.mark_bootstage
                0x80800d40       0x14 arch/arm/lib/libarm.o
 .text.__coloured_LED_init
                0x80800d54        0x4 arch/arm/lib/libarm.o
                0x80800d54                coloured_LED_init
                0x80800d54                __coloured_LED_init
 .text.__red_led_on
                0x80800d58        0x4 arch/arm/lib/libarm.o
                0x80800d58                __red_led_on
                0x80800d58                red_led_on
 .text.__power_init_board
                0x80800d5c        0x8 arch/arm/lib/libarm.o
                0x80800d5c                __power_init_board
                0x80800d5c                power_init_board
 .text.board_init_f
                0x80800d64      0x128 arch/arm/lib/libarm.o
                0x80800d64                board_init_f
 .text.board_init_r
                0x80800e8c       0xcc arch/arm/lib/libarm.o
                0x80800e8c                board_init_r
 .text.arch_fixup_memory_node
                0x80800f58       0x38 arch/arm/lib/libarm.o
                0x80800f58                arch_fixup_memory_node
 .text.boot_jump_linux
                0x80800f90       0xb8 arch/arm/lib/libarm.o
 .text.arch_lmb_reserve
                0x80801048       0x24 arch/arm/lib/libarm.o
                0x80801048                arch_lmb_reserve
 .text.setup_board_tags
                0x8080106c        0x4 arch/arm/lib/libarm.o
                0x8080106c                setup_board_tags
 .text.boot_prep_linux
                0x80801070      0x178 arch/arm/lib/libarm.o
 .text.do_bootm_linux
                0x808011e8       0x5c arch/arm/lib/libarm.o
                0x808011e8                do_bootm_linux
 .text.bootz_setup
                0x80801244       0x60 arch/arm/lib/libarm.o
                0x80801244                bootz_setup
 .text.interrupt_init
                0x808012a4       0x1c arch/arm/lib/libarm.o
                0x808012a4                interrupt_init
 .text.enable_interrupts
                0x808012c0        0x4 arch/arm/lib/libarm.o
                0x808012c0                enable_interrupts
 .text.disable_interrupts
                0x808012c4        0x8 arch/arm/lib/libarm.o
                0x808012c4                disable_interrupts
 .text.bad_mode
                0x808012cc       0x10 arch/arm/lib/libarm.o
                0x808012cc                bad_mode
 .text.show_regs
                0x808012dc      0x13c arch/arm/lib/libarm.o
                0x808012dc                show_regs
 .text.do_undefined_instruction
                0x80801418       0x20 arch/arm/lib/libarm.o
                0x80801418                do_undefined_instruction
 .text.do_software_interrupt
                0x80801438       0x20 arch/arm/lib/libarm.o
                0x80801438                do_software_interrupt
 .text.do_prefetch_abort
                0x80801458       0x20 arch/arm/lib/libarm.o
                0x80801458                do_prefetch_abort
 .text.do_data_abort
                0x80801478       0x20 arch/arm/lib/libarm.o
                0x80801478                do_data_abort
 .text.do_not_used
                0x80801498       0x20 arch/arm/lib/libarm.o
                0x80801498                do_not_used
 .text.do_fiq   0x808014b8       0x20 arch/arm/lib/libarm.o
                0x808014b8                do_fiq
 .text.do_irq   0x808014d8       0x20 arch/arm/lib/libarm.o
                0x808014d8                do_irq
 .text.do_reset
                0x808014f8       0x2c arch/arm/lib/libarm.o
                0x808014f8                do_reset
 .text.cp_delay
                0x80801524       0x30 arch/arm/lib/libarm.o
 .text.arm_init_domains
                0x80801554        0x4 arch/arm/lib/libarm.o
                0x80801554                arm_init_domains
 .text.set_section_dcache
                0x80801558       0x14 arch/arm/lib/libarm.o
                0x80801558                set_section_dcache
 .text.dram_bank_mmu_setup
                0x8080156c       0x40 arch/arm/lib/libarm.o
                0x8080156c                dram_bank_mmu_setup
 .text.icache_disable
                0x808015ac       0x1c arch/arm/lib/libarm.o
                0x808015ac                icache_disable
 .text.dcache_enable
                0x808015c8       0x6c arch/arm/lib/libarm.o
                0x808015c8                dcache_enable
 .text.dcache_disable
                0x80801634       0x2c arch/arm/lib/libarm.o
                0x80801634                dcache_disable
 .text.print_num
                0x80801660       0x18 common/libcommon.o
 .text.do_bdinfo
                0x80801678      0x178 common/libcommon.o
                0x80801678                do_bdinfo
 .text.do_go_exec
                0x808017f0       0x10 common/libcommon.o
                0x808017f0                do_go_exec
 .text.do_go    0x80801800       0x6c common/libcommon.o
 .text.copy_args
                0x8080186c       0x50 common/libcommon.o
 .text.image_info
                0x808018bc       0xcc common/libcommon.o
 .text.do_bootd
                0x80801988       0x24 common/libcommon.o
                0x80801988                do_bootd
 .text.do_bootm_rtems
                0x808019ac       0x50 common/libcommon.o
 .text.do_bootm_plan9
                0x808019fc       0xb0 common/libcommon.o
 .text.do_bootm_netbsd
                0x80801aac      0x100 common/libcommon.o
 .text.do_iminfo
                0x80801bac       0x60 common/libcommon.o
 .text.bootm_find_ramdisk.isra.17
                0x80801c0c       0x44 common/libcommon.o
 .text.bootm_find_fdt
                0x80801c50       0x5c common/libcommon.o
 .text.__arch_preboot_os
                0x80801cac        0x4 common/libcommon.o
                0x80801cac                arch_preboot_os
 .text.do_bootm_states.isra.20.constprop.22
                0x80801cb0      0x840 common/libcommon.o
 .text.do_bootm
                0x808024f0       0xec common/libcommon.o
                0x808024f0                do_bootm
 .text.bootm_maybe_autostart
                0x808025dc       0x78 common/libcommon.o
                0x808025dc                bootm_maybe_autostart
 .text.do_bootz
                0x80802654      0x100 common/libcommon.o
                0x80802654                do_bootz
 .text.do_coninfo
                0x80802754       0xbc common/libcommon.o
 .text.do_dfu   0x80802810       0xec common/libcommon.o
 .text.common_diskboot
                0x808028fc      0x238 common/libcommon.o
                0x808028fc                common_diskboot
 .text.do_echo  0x80802b34       0xb0 common/libcommon.o
 .text.eeprom_read
                0x80802be4       0x7c common/libcommon.o
                0x80802be4                eeprom_read
 .text.eeprom_write
                0x80802c60       0x84 common/libcommon.o
                0x80802c60                eeprom_write
 .text.eeprom_init
                0x80802ce4       0x10 common/libcommon.o
                0x80802ce4                eeprom_init
 .text.do_eeprom
                0x80802cf4      0x120 common/libcommon.o
                0x80802cf4                do_eeprom
 .text.do_exit  0x80802e14       0x30 common/libcommon.o
 .text.do_ext2ls
                0x80802e44       0x18 common/libcommon.o
                0x80802e44                do_ext2ls
 .text.do_ext2load
                0x80802e5c       0x18 common/libcommon.o
                0x80802e5c                do_ext2load
 .text.do_ext4_load
                0x80802e74       0x18 common/libcommon.o
                0x80802e74                do_ext4_load
 .text.do_ext4_ls
                0x80802e8c       0x18 common/libcommon.o
                0x80802e8c                do_ext4_ls
 .text.do_fat_fsload
                0x80802ea4       0x18 common/libcommon.o
                0x80802ea4                do_fat_fsload
 .text.do_fat_ls
                0x80802ebc       0x18 common/libcommon.o
 .text.do_fat_fsinfo
                0x80802ed4       0x90 common/libcommon.o
 .text.do_fat_fswrite
                0x80802f64       0xfc common/libcommon.o
 .text.fdt_valid
                0x80803060       0xbc common/libcommon.o
 .text.is_printable_string
                0x8080311c       0x98 common/libcommon.o
 .text.print_data
                0x808031b4      0x174 common/libcommon.o
 .text.set_working_fdt_addr
                0x80803328       0x1c common/libcommon.o
                0x80803328                set_working_fdt_addr
 .text.do_fdt   0x80803344      0xe88 common/libcommon.o
 .text.do_load_wrapper
                0x808041cc       0x18 common/libcommon.o
                0x808041cc                do_load_wrapper
 .text.do_ls_wrapper
                0x808041e4       0x18 common/libcommon.o
                0x808041e4                do_ls_wrapper
 .text.do_gpio  0x808041fc      0x124 common/libcommon.o
 .text.extract_val
                0x80804320       0x98 common/libcommon.o
 .text.extract_env
                0x808043b8       0xd0 common/libcommon.o
 .text.do_gpt   0x80804488      0x444 common/libcommon.o
 .text.do_help  0x808048cc       0x48 common/libcommon.o
 .text.get_alen
                0x80804914       0x3c common/libcommon.o
 .text.do_i2c   0x80804950       0x64 common/libcommon.o
 .text.do_i2c_reset
                0x808049b4       0x1c common/libcommon.o
 .text.do_i2c_mw
                0x808049d0       0xec common/libcommon.o
 .text.do_i2c_read
                0x80804abc       0xb0 common/libcommon.o
 .text.do_i2c_probe
                0x80804b6c       0x9c common/libcommon.o
 .text.do_i2c_md
                0x80804c08      0x1dc common/libcommon.o
 .text.do_i2c_crc
                0x80804de4      0x118 common/libcommon.o
 .text.do_i2c_bus_num
                0x80804efc       0x74 common/libcommon.o
                0x80804efc                do_i2c_bus_num
 .text.do_i2c_write
                0x80804f70       0xf0 common/libcommon.o
 .text.do_i2c_loop
                0x80805060       0xe0 common/libcommon.o
 .text.mod_i2c_mem.isra.3
                0x80805140      0x200 common/libcommon.o
 .text.do_i2c_nm
                0x80805340        0x8 common/libcommon.o
 .text.do_i2c_mm
                0x80805348        0x8 common/libcommon.o
 .text.i2c_get_bus_speed
                0x80805350        0xc common/libcommon.o
                0x80805350                i2c_get_bus_speed
 .text.i2c_set_bus_speed
                0x8080535c       0x14 common/libcommon.o
                0x8080535c                i2c_set_bus_speed
 .text.do_i2c_bus_speed
                0x80805370       0x74 common/libcommon.o
 .text.evalexp  0x808053e4       0x74 common/libcommon.o
 .text.binary_test
                0x80805458      0x1e4 common/libcommon.o
 .text.do_itest
                0x8080563c       0x98 common/libcommon.o
 .text.SetWindowRGB.constprop.3
                0x808056d4       0x98 common/libcommon.o
 .text.do_lcd   0x8080576c      0x378 common/libcommon.o
 .text.bin_data_init
                0x80805ae4       0x2c common/libcommon.o
 .text.k_data_save
                0x80805b10       0x4c common/libcommon.o
 .text.k_data_restore
                0x80805b5c       0x4c common/libcommon.o
 .text.getcxmodem
                0x80805ba8       0x20 common/libcommon.o
 .text.load_serial_ymodem
                0x80805bc8       0xcc common/libcommon.o
 .text.bin_data_char
                0x80805c94       0x2c common/libcommon.o
 .text.chk1.constprop.1
                0x80805cc0       0x2c common/libcommon.o
 .text.s1_sendpacket.constprop.2
                0x80805cec       0x50 common/libcommon.o
 .text.load_serial
                0x80805d3c      0x1e0 common/libcommon.o
 .text.do_load_serial
                0x80805f1c       0xdc common/libcommon.o
 .text.do_load_serial_bin
                0x80805ff8      0x7b0 common/libcommon.o
 .text.extract_range
                0x808067a8       0xe4 common/libcommon.o
 .text.do_mdio  0x8080688c      0x3e8 common/libcommon.o
 .text.do_mem_mw
                0x80806c74       0xc0 common/libcommon.o
 .text.do_mem_loop
                0x80806d34       0xec common/libcommon.o
 .text.do_mem_md
                0x80806e20       0xec common/libcommon.o
 .text.do_mem_cmp
                0x80806f0c      0x15c common/libcommon.o
 .text.do_mem_base
                0x80807068       0x40 common/libcommon.o
 .text.do_mem_cp
                0x808070a8       0xd8 common/libcommon.o
 .text.do_mem_crc
                0x80807180       0x48 common/libcommon.o
 .text.mod_mem.isra.2
                0x808071c8      0x164 common/libcommon.o
 .text.do_mem_mm
                0x8080732c        0x8 common/libcommon.o
 .text.do_mem_nm
                0x80807334        0x8 common/libcommon.o
 .text.do_mem_mtest
                0x8080733c      0x4bc common/libcommon.o
 .text.do_mii   0x808077f8      0x7ac common/libcommon.o
 .text.do_sleep
                0x80807fa4       0x70 common/libcommon.o
 .text.do_mmcops
                0x80808014      0x478 common/libcommon.o
 .text.do_mmcinfo
                0x8080848c      0x180 common/libcommon.o
 .text.part_delall
                0x8080860c       0x44 common/libcommon.o
 .text.get_mtd_info
                0x80808650       0x78 common/libcommon.o
 .text.memsize_parse
                0x808086c8       0x80 common/libcommon.o
 .text.part_validate
                0x80808748      0x370 common/libcommon.o
 .text.mtd_part_info
                0x80808ab8       0x98 common/libcommon.o
 .text.memsize_format
                0x80808b50       0x90 common/libcommon.o
 .text.index_partitions
                0x80808be0       0xb4 common/libcommon.o
 .text.current_save
                0x80808c94       0xbc common/libcommon.o
 .text.part_sort_add
                0x80808d50      0x11c common/libcommon.o
 .text.device_del
                0x80808e6c       0x7c common/libcommon.o
 .text.generate_mtdparts_save.constprop.7
                0x80808ee8      0x304 common/libcommon.o
 .text.device_delall.constprop.9
                0x808091ec       0x64 common/libcommon.o
 .text.mtd_devices_init
                0x80809250       0x2c common/libcommon.o
 .text.device_find
                0x8080927c       0x4c common/libcommon.o
                0x8080927c                device_find
 .text.device_parse
                0x808092c8      0x560 common/libcommon.o
 .text.mtd_id_parse
                0x80809828      0x11c common/libcommon.o
                0x80809828                mtd_id_parse
 .text.find_dev_and_part
                0x80809944      0x1b0 common/libcommon.o
                0x80809944                find_dev_and_part
 .text.mtdparts_init
                0x80809af4      0x660 common/libcommon.o
                0x80809af4                mtdparts_init
 .text.do_chpart
                0x8080a154       0xd4 common/libcommon.o
 .text.do_mtdparts
                0x8080a228      0x5c0 common/libcommon.o
 .text.set_dev  0x8080a7e8       0x70 common/libcommon.o
 .text.nand_print_and_set_info
                0x8080a858       0xcc common/libcommon.o
 .text.arg_off  0x8080a924      0x108 common/libcommon.o
 .text.arg_off_size
                0x8080aa2c      0x14c common/libcommon.o
 .text.do_nand  0x8080ab78      0xcc8 common/libcommon.o
 .text.nand_load_image
                0x8080b840      0x1b8 common/libcommon.o
 .text.do_nandboot
                0x8080b9f8      0x254 common/libcommon.o
 .text.netboot_common
                0x8080bc4c      0x2c0 common/libcommon.o
 .text.do_bootp
                0x8080bf0c        0xc common/libcommon.o
 .text.do_dhcp  0x8080bf18        0xc common/libcommon.o
 .text.do_nfs   0x8080bf24        0xc common/libcommon.o
 .text.do_tftpb
                0x8080bf30       0x40 common/libcommon.o
                0x8080bf30                do_tftpb
 .text.do_ping  0x8080bf70       0x7c common/libcommon.o
 .text.do_env_delete
                0x8080bfec       0x9c common/libcommon.o
 .text.do_env_save
                0x8080c088       0x2c common/libcommon.o
 .text.do_env   0x8080c0b4       0x64 common/libcommon.o
 .text.env_print
                0x8080c118       0xc0 common/libcommon.o
 .text.do_env_print
                0x8080c1d8       0xc8 common/libcommon.o
 .text.do_env_import
                0x8080c2a0      0x244 common/libcommon.o
 .text.do_env_default
                0x8080c4e4       0xa8 common/libcommon.o
 .text._do_env_set.isra.0
                0x8080c58c      0x1b8 common/libcommon.o
 .text.do_env_set
                0x8080c744       0x1c common/libcommon.o
 .text.do_env_ask
                0x8080c760      0x14c common/libcommon.o
                0x8080c760                do_env_ask
 .text.get_env_id
                0x8080c8ac       0x10 common/libcommon.o
                0x8080c8ac                get_env_id
 .text.setenv   0x8080c8bc       0x58 common/libcommon.o
                0x8080c8bc                setenv
 .text.setenv_ulong
                0x8080c914       0x20 common/libcommon.o
                0x8080c914                setenv_ulong
 .text.setenv_hex
                0x8080c934       0x34 common/libcommon.o
                0x8080c934                setenv_hex
 .text.do_env_export
                0x8080c968      0x264 common/libcommon.o
 .text.envmatch
                0x8080cbcc       0x6c common/libcommon.o
                0x8080cbcc                envmatch
 .text.getenv_f
                0x8080cc38       0xc8 common/libcommon.o
                0x8080cc38                getenv_f
 .text.getenv   0x8080cd00       0x78 common/libcommon.o
                0x8080cd00                getenv
 .text.getenv_hex
                0x8080cd78       0x3c common/libcommon.o
                0x8080cd78                getenv_hex
 .text.getenv_ulong
                0x8080cdb4       0x30 common/libcommon.o
                0x8080cdb4                getenv_ulong
 .text.do_env_edit
                0x8080cde4       0x78 common/libcommon.o
 .text.do_part_uuid
                0x8080ce5c       0x80 common/libcommon.o
                0x8080ce5c                do_part_uuid
 .text.do_part_list
                0x8080cedc       0x3c common/libcommon.o
                0x8080cedc                do_part_list
 .text.do_part  0x8080cf18       0x74 common/libcommon.o
                0x8080cf18                do_part
 .text.bytes_per_second
                0x8080cf8c       0x50 common/libcommon.o
 .text.do_spi_flash
                0x8080cfdc      0x750 common/libcommon.o
 .text.source   0x8080d72c       0xd8 common/libcommon.o
                0x8080d72c                source
 .text.do_source
                0x8080d804       0x44 common/libcommon.o
                0x8080d804                do_source
 .text.do_spi   0x8080d848      0x25c common/libcommon.o
                0x8080d848                do_spi
 .text.do_spl   0x8080daa4      0x1a0 common/libcommon.o
 .text.do_false
                0x8080dc44        0x8 common/libcommon.o
 .text.do_true  0x8080dc4c        0x8 common/libcommon.o
 .text.do_test  0x8080dc54      0x460 common/libcommon.o
 .text.ubi_find_volume
                0x8080e0b4       0x70 common/libcommon.o
 .text.ubi_volume_continue_write
                0x8080e124       0xc4 common/libcommon.o
                0x8080e124                ubi_volume_continue_write
 .text.ubi_volume_begin_write
                0x8080e1e8       0xa4 common/libcommon.o
                0x8080e1e8                ubi_volume_begin_write
 .text.ubi_volume_write
                0x8080e28c        0x8 common/libcommon.o
                0x8080e28c                ubi_volume_write
 .text.ubi_volume_read
                0x8080e294      0x1d4 common/libcommon.o
                0x8080e294                ubi_volume_read
 .text.ubi_part
                0x8080e468      0x250 common/libcommon.o
                0x8080e468                ubi_part
 .text.do_ubi   0x8080e6b8      0x93c common/libcommon.o
 .text.do_ubifs_mount
                0x8080eff4       0x64 common/libcommon.o
                0x8080eff4                do_ubifs_mount
 .text.do_ubifs_ls
                0x8080f058       0x64 common/libcommon.o
                0x8080f058                do_ubifs_ls
 .text.do_ubifs_load
                0x8080f0bc       0xc8 common/libcommon.o
                0x8080f0bc                do_ubifs_load
 .text.ubifs_is_mounted
                0x8080f184       0x10 common/libcommon.o
                0x8080f184                ubifs_is_mounted
 .text.cmd_ubifs_umount
                0x8080f194       0x5c common/libcommon.o
                0x8080f194                cmd_ubifs_umount
 .text.do_ubifs_umount
                0x8080f1f0       0x48 common/libcommon.o
                0x8080f1f0                do_ubifs_umount
 .text.usb_get_class_desc
                0x8080f238       0xbc common/libcommon.o
 .text.usb_display_class_sub
                0x8080f2f4      0x170 common/libcommon.o
 .text.usb_find_device
                0x8080f464       0x3c common/libcommon.o
 .text.usb_show_tree_graph
                0x8080f4a0      0x218 common/libcommon.o
 .text.usb_display_string
                0x8080f6b8       0x44 common/libcommon.o
 .text.usb_display_config
                0x8080f6fc      0x20c common/libcommon.o
 .text.do_usbboot
                0x8080f908        0xc common/libcommon.o
 .text.usb_display_desc.part.1
                0x8080f914      0x12c common/libcommon.o
 .text.do_usb   0x8080fa40      0x770 common/libcommon.o
 .text.do_version
                0x808101b0       0x38 common/libcommon.o
 .text.do_imgextract
                0x808101e8      0x280 common/libcommon.o
 .text.find_cmd_tbl
                0x80810468       0xa4 common/libcommon.o
                0x80810468                find_cmd_tbl
 .text.find_cmd
                0x8081050c       0x28 common/libcommon.o
                0x8081050c                find_cmd
 .text.cmd_usage
                0x80810534       0x5c common/libcommon.o
                0x80810534                cmd_usage
 .text._do_help
                0x80810590      0x180 common/libcommon.o
                0x80810590                _do_help
 .text.var_complete
                0x80810710       0x7c common/libcommon.o
                0x80810710                var_complete
 .text.cmd_auto_complete
                0x8081078c      0x46c common/libcommon.o
                0x8081078c                cmd_auto_complete
 .text.cmd_get_data_size
                0x80810bf8       0x5c common/libcommon.o
                0x80810bf8                cmd_get_data_size
 .text.cmd_process
                0x80810c54       0xf4 common/libcommon.o
                0x80810c54                cmd_process
 .text.console_setfile
                0x80810d48       0xa4 common/libcommon.o
 .text.fgetc    0x80810dec       0x24 common/libcommon.o
                0x80810dec                fgetc
 .text.ftstc    0x80810e10       0x24 common/libcommon.o
                0x80810e10                ftstc
 .text.getc     0x80810e34       0x24 common/libcommon.o
                0x80810e34                getc
 .text.tstc     0x80810e58       0x24 common/libcommon.o
                0x80810e58                tstc
 .text.putc     0x80810e7c       0x30 common/libcommon.o
                0x80810e7c                putc
 .text.puts     0x80810eac       0x30 common/libcommon.o
                0x80810eac                puts
 .text.printf   0x80810edc       0x4c common/libcommon.o
                0x80810edc                printf
 .text.vprintf  0x80810f28       0x3c common/libcommon.o
                0x80810f28                vprintf
 .text.ctrlc    0x80810f64       0x58 common/libcommon.o
                0x80810f64                ctrlc
 .text.had_ctrlc
                0x80810fbc       0x10 common/libcommon.o
                0x80810fbc                had_ctrlc
 .text.clear_ctrlc
                0x80810fcc       0x14 common/libcommon.o
                0x80810fcc                clear_ctrlc
 .text.search_device
                0x80810fe0       0x28 common/libcommon.o
                0x80810fe0                search_device
 .text.console_assign
                0x80811008       0x48 common/libcommon.o
                0x80811008                console_assign
 .text.on_console
                0x80811050       0xc0 common/libcommon.o
 .text.console_init_f
                0x80811110       0x10 common/libcommon.o
                0x80811110                console_init_f
 .text.console_init_r
                0x80811120       0xdc common/libcommon.o
                0x80811120                console_init_r
 .text.sbrk     0x808111fc       0x70 common/libcommon.o
                0x808111fc                sbrk
 .text.mem_malloc_init
                0x8081126c       0x34 common/libcommon.o
                0x8081126c                mem_malloc_init
 .text.malloc_trim
                0x808112a0       0xcc common/libcommon.o
                0x808112a0                malloc_trim
 .text.free     0x8081136c      0x234 common/libcommon.o
                0x8081136c                free
 .text.malloc   0x808115a0      0x608 common/libcommon.o
                0x808115a0                malloc
 .text.calloc   0x80811ba8       0xd4 common/libcommon.o
                0x80811ba8                calloc
 .text.realloc  0x80811c7c      0x4c4 common/libcommon.o
                0x80811c7c                realloc
 .text.memalign
                0x80812140      0x10c common/libcommon.o
                0x80812140                memalign
 .text.cfree    0x8081224c        0x4 common/libcommon.o
                0x8081224c                cfree
 .text.env_attr_walk
                0x80812250      0x114 common/libcommon.o
                0x80812250                env_attr_walk
 .text.env_attr_lookup
                0x80812364      0x18c common/libcommon.o
                0x80812364                env_attr_lookup
 .text.clear_callback
                0x808124f0       0x10 common/libcommon.o
 .text.find_env_callback
                0x80812500       0x68 common/libcommon.o
 .text.on_callbacks
                0x80812568       0x48 common/libcommon.o
 .text.set_callback
                0x808125b0       0x94 common/libcommon.o
 .text.env_callback_init
                0x80812644       0xa0 common/libcommon.o
                0x80812644                env_callback_init
 .text.__env_get_char_spec
                0x808126e4        0xc common/libcommon.o
                0x808126e4                env_get_char_spec
 .text.env_get_addr
                0x808126f0       0x20 common/libcommon.o
                0x808126f0                env_get_addr
 .text.env_get_char_memory
                0x80812710       0x10 common/libcommon.o
                0x80812710                env_get_char_memory
 .text.env_get_char
                0x80812720       0x30 common/libcommon.o
                0x80812720                env_get_char
 .text.getenv_yesno
                0x80812750       0x40 common/libcommon.o
                0x80812750                getenv_yesno
 .text.getenv_default
                0x80812790       0x30 common/libcommon.o
                0x80812790                getenv_default
 .text.set_default_env
                0x808127c0       0xbc common/libcommon.o
                0x808127c0                set_default_env
 .text.set_default_vars
                0x8081287c       0x34 common/libcommon.o
                0x8081287c                set_default_vars
 .text.env_import
                0x808128b0       0xe0 common/libcommon.o
                0x808128b0                env_import
 .text.env_relocate
                0x80812990       0x30 common/libcommon.o
                0x80812990                env_relocate
 .text.env_complete
                0x808129c0       0xdc common/libcommon.o
                0x808129c0                env_complete
 .text.skip_num
                0x80812a9c       0x70 common/libcommon.o
 .text.clear_flags
                0x80812b0c       0x10 common/libcommon.o
 .text.on_flags
                0x80812b1c       0x48 common/libcommon.o
 .text.env_flags_parse_vartype
                0x80812b64       0x50 common/libcommon.o
                0x80812b64                env_flags_parse_vartype
 .text.env_flags_parse_varaccess
                0x80812bb4       0x58 common/libcommon.o
                0x80812bb4                env_flags_parse_varaccess
 .text.set_flags
                0x80812c0c       0xac common/libcommon.o
 .text.env_flags_init
                0x80812cb8       0xb0 common/libcommon.o
                0x80812cb8                env_flags_init
 .text.env_flags_validate
                0x80812d68      0x324 common/libcommon.o
                0x80812d68                env_flags_validate
 .text.env_init
                0x8081308c       0x1c common/libcommon.o
                0x8081308c                env_init
 .text.writeenv
                0x808130a8       0xb0 common/libcommon.o
                0x808130a8                writeenv
 .text.erase_and_write_env
                0x80813158       0x88 common/libcommon.o
 .text.saveenv  0x808131e0      0x138 common/libcommon.o
                0x808131e0                saveenv
 .text.readenv  0x80813318       0xc0 common/libcommon.o
                0x80813318                readenv
 .text.env_relocate_spec
                0x808133d8      0x1e8 common/libcommon.o
                0x808133d8                env_relocate_spec
 .text.dummy    0x808135c0        0x4 common/libcommon.o
 .text.get_version
                0x808135c4        0x8 common/libcommon.o
                0x808135c4                get_version
 .text.jumptable_init
                0x808135cc      0x1d0 common/libcommon.o
                0x808135cc                jumptable_init
 .text.get_cells_len
                0x8081379c       0x38 common/libcommon.o
 .text.fdt_find_and_setprop
                0x808137d4       0x70 common/libcommon.o
                0x808137d4                fdt_find_and_setprop
 .text.fdt_initrd
                0x80813844      0x1c8 common/libcommon.o
                0x80813844                fdt_initrd
 .text.fdt_chosen
                0x80813a0c      0x10c common/libcommon.o
                0x80813a0c                fdt_chosen
 .text.do_fixup_by_path
                0x80813b18       0x54 common/libcommon.o
                0x80813b18                do_fixup_by_path
 .text.fdt_fixup_memory_banks
                0x80813b6c      0x258 common/libcommon.o
                0x80813b6c                fdt_fixup_memory_banks
 .text.fdt_fixup_memory
                0x80813dc4       0x20 common/libcommon.o
                0x80813dc4                fdt_fixup_memory
 .text.fdt_fixup_ethernet
                0x80813de4      0x158 common/libcommon.o
                0x80813de4                fdt_fixup_ethernet
 .text.fdt_resize
                0x80813f3c       0xcc common/libcommon.o
                0x80813f3c                fdt_resize
 .text.hash_command
                0x80814008       0xa0 common/libcommon.o
                0x80814008                hash_command
 .text.b_reset  0x808140a8       0x1c common/libcommon.o
 .text.static_get
                0x808140c4       0x1c common/libcommon.o
 .text.static_peek
                0x808140e0        0xc common/libcommon.o
 .text.file_peek
                0x808140ec        0xc common/libcommon.o
 .text.mapset   0x808140f8       0x20 common/libcommon.o
 .text.syntax_err
                0x80814118        0xc common/libcommon.o
 .text.free_pipe_list
                0x80814124       0xe8 common/libcommon.o
 .text.xmalloc  0x8081420c       0x20 common/libcommon.o
 .text.new_pipe
                0x8081422c       0x28 common/libcommon.o
 .text.xrealloc
                0x80814254       0x20 common/libcommon.o
 .text.done_command
                0x80814274       0x84 common/libcommon.o
 .text.done_pipe
                0x808142f8       0x48 common/libcommon.o
 .text.done_word
                0x80814340      0x2a8 common/libcommon.o
 .text.do_showvar
                0x808145e8       0xfc common/libcommon.o
 .text.is_assignment
                0x808146e4       0x5c common/libcommon.o
 .text.file_get
                0x80814740      0x1ec common/libcommon.o
 .text.b_addchr
                0x8081492c       0x78 common/libcommon.o
 .text.b_addqchr
                0x808149a4       0x50 common/libcommon.o
 .text.get_local_var
                0x808149f4       0xa0 common/libcommon.o
                0x808149f4                get_local_var
 .text.set_local_var
                0x80814a94      0x1ac common/libcommon.o
                0x80814a94                set_local_var
 .text.insert_var_value_sub
                0x80814c40      0x2c0 common/libcommon.o
 .text.parse_string_outer
                0x80814f00       0xe4 common/libcommon.o
                0x80814f00                parse_string_outer
 .text.run_list_real
                0x80814fe4      0x784 common/libcommon.o
 .text.parse_stream_outer
                0x80815768      0x6ac common/libcommon.o
 .text.parse_file_outer
                0x80815e14       0x44 common/libcommon.o
                0x80815e14                parse_file_outer
 .text.u_boot_hush_start
                0x80815e58       0x54 common/libcommon.o
                0x80815e58                u_boot_hush_start
 .text.fdt_error
                0x80815eac       0x2c common/libcommon.o
 .text.boot_fdt_add_mem_rsv_regions
                0x80815ed8       0x88 common/libcommon.o
                0x80815ed8                boot_fdt_add_mem_rsv_regions
 .text.boot_relocate_fdt
                0x80815f60      0x194 common/libcommon.o
                0x80815f60                boot_relocate_fdt
 .text.boot_get_fdt
                0x808160f4      0x268 common/libcommon.o
                0x808160f4                boot_get_fdt
 .text.ft_verify_fdt
                0x8081635c        0x8 common/libcommon.o
                0x8081635c                ft_verify_fdt
 .text.image_setup_libfdt
                0x80816364       0xd8 common/libcommon.o
                0x80816364                image_setup_libfdt
 .text.on_loadaddr
                0x8081643c       0x38 common/libcommon.o
 .text.image_check_hcrc
                0x80816474       0x4c common/libcommon.o
                0x80816474                image_check_hcrc
 .text.image_check_dcrc
                0x808164c0       0x38 common/libcommon.o
                0x808164c0                image_check_dcrc
 .text.image_multi_count
                0x808164f8       0x1c common/libcommon.o
                0x808164f8                image_multi_count
 .text.image_multi_getimg
                0x80816514       0x80 common/libcommon.o
                0x80816514                image_multi_getimg
 .text.getenv_bootm_low
                0x80816594       0x30 common/libcommon.o
                0x80816594                getenv_bootm_low
 .text.getenv_bootm_size
                0x808165c4       0x5c common/libcommon.o
                0x808165c4                getenv_bootm_size
 .text.getenv_bootm_mapsize
                0x80816620       0x30 common/libcommon.o
                0x80816620                getenv_bootm_mapsize
 .text.memmove_wd
                0x80816650        0xc common/libcommon.o
                0x80816650                memmove_wd
 .text.genimg_print_size
                0x8081665c       0x30 common/libcommon.o
                0x8081665c                genimg_print_size
 .text.get_table_entry_name
                0x8081668c       0x2c common/libcommon.o
                0x8081668c                get_table_entry_name
 .text.genimg_get_os_name
                0x808166b8       0x18 common/libcommon.o
                0x808166b8                genimg_get_os_name
 .text.genimg_get_arch_name
                0x808166d0       0x18 common/libcommon.o
                0x808166d0                genimg_get_arch_name
 .text.genimg_get_type_name
                0x808166e8       0x18 common/libcommon.o
                0x808166e8                genimg_get_type_name
 .text.genimg_get_comp_name
                0x80816700       0x18 common/libcommon.o
                0x80816700                genimg_get_comp_name
 .text.image_print_contents
                0x80816718      0x174 common/libcommon.o
                0x80816718                image_print_contents
 .text.genimg_get_format
                0x8081688c       0x34 common/libcommon.o
                0x8081688c                genimg_get_format
 .text.genimg_get_image
                0x808168c0        0x4 common/libcommon.o
                0x808168c0                genimg_get_image
 .text.genimg_has_config
                0x808168c4        0x8 common/libcommon.o
                0x808168c4                genimg_has_config
 .text.boot_get_ramdisk
                0x808168cc      0x238 common/libcommon.o
                0x808168cc                boot_get_ramdisk
 .text.boot_ramdisk_high
                0x80816b04      0x130 common/libcommon.o
                0x80816b04                boot_ramdisk_high
 .text.image_setup_linux
                0x80816c34       0x8c common/libcommon.o
                0x80816c34                image_setup_linux
 .text.delete_char.part.0
                0x80816cc0       0xd4 common/libcommon.o
 .text.cread_add_char
                0x80816d94       0xec common/libcommon.o
 .text.__show_boot_progress
                0x80816e80        0x4 common/libcommon.o
                0x80816e80                __show_boot_progress
                0x80816e80                show_boot_progress
 .text.readline_into_buffer
                0x80816e84      0x9c4 common/libcommon.o
                0x80816e84                readline_into_buffer
 .text.readline
                0x80817848       0x14 common/libcommon.o
                0x80817848                readline
 .text.run_command
                0x8081785c        0x8 common/libcommon.o
                0x8081785c                run_command
 .text.run_command_list
                0x80817864       0x5c common/libcommon.o
                0x80817864                run_command_list
 .text.main_loop
                0x808178c0      0x174 common/libcommon.o
                0x808178c0                main_loop
 .text.do_run   0x80817a34       0x74 common/libcommon.o
                0x80817a34                do_run
 .text.get_ram_size
                0x80817aa8       0xe4 common/libcommon.o
                0x80817aa8                get_ram_size
 .text.miiphy_get_dev_by_name
                0x80817b8c       0x60 common/libcommon.o
                0x80817b8c                miiphy_get_dev_by_name
 .text.miiphy_init
                0x80817bec       0x24 common/libcommon.o
                0x80817bec                miiphy_init
 .text.mdio_list_devices
                0x80817c10       0x98 common/libcommon.o
                0x80817c10                mdio_list_devices
 .text.miiphy_set_current_dev
                0x80817ca8       0x40 common/libcommon.o
                0x80817ca8                miiphy_set_current_dev
 .text.miiphy_get_active_dev
                0x80817ce8       0x54 common/libcommon.o
 .text.mdio_get_current_dev
                0x80817d3c       0x10 common/libcommon.o
                0x80817d3c                mdio_get_current_dev
 .text.mdio_phydev_for_ethname
                0x80817d4c       0x88 common/libcommon.o
                0x80817d4c                mdio_phydev_for_ethname
 .text.miiphy_get_current_dev
                0x80817dd4       0x18 common/libcommon.o
                0x80817dd4                miiphy_get_current_dev
 .text.miiphy_read
                0x80817dec       0x4c common/libcommon.o
                0x80817dec                miiphy_read
 .text.miiphy_write
                0x80817e38       0x40 common/libcommon.o
                0x80817e38                miiphy_write
 .text.miiphy_listdev
                0x80817e78       0x74 common/libcommon.o
                0x80817e78                miiphy_listdev
 .text.miiphy_info
                0x80817eec       0x88 common/libcommon.o
                0x80817eec                miiphy_info
 .text.miiphy_is_1000base_x
                0x80817f74       0x44 common/libcommon.o
                0x80817f74                miiphy_is_1000base_x
 .text.miiphy_speed
                0x80817fb8       0xec common/libcommon.o
                0x80817fb8                miiphy_speed
 .text.miiphy_duplex
                0x808180a4      0x11c common/libcommon.o
                0x808180a4                miiphy_duplex
 .text.hex1_bin
                0x808181c0       0x40 common/libcommon.o
 .text.hex2_bin
                0x80818200       0x38 common/libcommon.o
 .text.srec_decode
                0x80818238      0x254 common/libcommon.o
                0x80818238                srec_decode
 .text.stdio_get_list
                0x8081848c        0xc common/libcommon.o
                0x8081848c                stdio_get_list
 .text.stdio_get_by_name
                0x80818498       0x5c common/libcommon.o
                0x80818498                stdio_get_by_name
 .text.stdio_clone
                0x808184f4       0x38 common/libcommon.o
                0x808184f4                stdio_clone
 .text.stdio_register
                0x8081852c       0x3c common/libcommon.o
                0x8081852c                stdio_register
 .text.stdio_init
                0x80818568       0x9c common/libcommon.o
                0x80818568                stdio_init
 .text.usb_set_maxpacket_ep
                0x80818604       0x70 common/libcommon.o
 .text.usb_stop
                0x80818674       0x64 common/libcommon.o
                0x80818674                usb_stop
 .text.usb_disable_asynch
                0x808186d8       0x20 common/libcommon.o
                0x808186d8                usb_disable_asynch
 .text.usb_control_msg
                0x808186f8       0xc4 common/libcommon.o
                0x808186f8                usb_control_msg
 .text.usb_get_descriptor
                0x808187bc       0x50 common/libcommon.o
 .text.usb_get_string
                0x8081880c       0x6c common/libcommon.o
 .text.usb_string_sub
                0x80818878      0x108 common/libcommon.o
 .text.usb_bulk_msg
                0x80818980       0x78 common/libcommon.o
                0x80818980                usb_bulk_msg
 .text.usb_maxpacket
                0x808189f8       0x1c common/libcommon.o
                0x808189f8                usb_maxpacket
 .text.usb_clear_halt
                0x80818a14       0x8c common/libcommon.o
                0x80818a14                usb_clear_halt
 .text.usb_get_configuration_no
                0x80818aa0       0xac common/libcommon.o
                0x80818aa0                usb_get_configuration_no
 .text.usb_set_interface
                0x80818b4c       0xa8 common/libcommon.o
                0x80818b4c                usb_set_interface
 .text.usb_string
                0x80818bf4      0x100 common/libcommon.o
                0x80818bf4                usb_string
 .text.usb_get_dev_index
                0x80818cf4       0x24 common/libcommon.o
                0x80818cf4                usb_get_dev_index
 .text.usb_alloc_new_device
                0x80818d18       0x90 common/libcommon.o
                0x80818d18                usb_alloc_new_device
 .text.usb_free_device
                0x80818da8       0x48 common/libcommon.o
                0x80818da8                usb_free_device
 .text.usb_alloc_device
                0x80818df0        0x8 common/libcommon.o
                0x80818df0                usb_alloc_device
 .text.usb_new_device
                0x80818df8      0x60c common/libcommon.o
                0x80818df8                usb_new_device
 .text.usb_init
                0x80819404      0x114 common/libcommon.o
                0x80819404                usb_init
 .text.board_usb_init
                0x80819518        0x8 common/libcommon.o
                0x80819518                board_usb_init
 .text.usb_set_port_feature
                0x80819520       0x4c common/libcommon.o
 .text.usb_get_port_status
                0x8081956c       0x4c common/libcommon.o
 .text.usb_clear_port_feature
                0x808195b8       0x4c common/libcommon.o
 .text.usb_hub_power_on
                0x80819604       0xb4 common/libcommon.o
 .text.usb_get_hub_descriptor
                0x808196b8       0x50 common/libcommon.o
 .text.usb_hub_reset_devices
                0x80819708        0x4 common/libcommon.o
                0x80819708                usb_hub_reset_devices
 .text.usb_hub_reset
                0x8081970c       0x14 common/libcommon.o
                0x8081970c                usb_hub_reset
 .text.hub_port_reset
                0x80819720       0xac common/libcommon.o
                0x80819720                hub_port_reset
 .text.usb_hub_port_connect_change
                0x808197cc      0x124 common/libcommon.o
                0x808197cc                usb_hub_port_connect_change
 .text.usb_hub_configure
                0x808198f0      0x2d8 common/libcommon.o
 .text.usb_hub_probe
                0x80819bc8       0x58 common/libcommon.o
                0x80819bc8                usb_hub_probe
 .text.usb_stor_irq
                0x80819c20       0x1c common/libcommon.o
 .text.usb_stor_BBB_reset
                0x80819c3c       0xd0 common/libcommon.o
 .text.usb_stor_CB_reset
                0x80819d0c       0xcc common/libcommon.o
 .text.usb_stor_BBB_clear_endpt_stall.isra.2
                0x80819dd8       0x40 common/libcommon.o
 .text.usb_stor_BBB_transport
                0x80819e18      0x26c common/libcommon.o
 .text.usb_stor_CB_comdat
                0x8081a084      0x214 common/libcommon.o
 .text.usb_stor_CBI_get_status.isra.4
                0x8081a298       0xcc common/libcommon.o
 .text.usb_stor_CB_transport
                0x8081a364      0x228 common/libcommon.o
 .text.usb_request_sense.constprop.10
                0x8081a58c       0x70 common/libcommon.o
 .text.usb_stor_write
                0x8081a5fc      0x1c4 common/libcommon.o
                0x8081a5fc                usb_stor_write
 .text.usb_stor_read
                0x8081a7c0      0x1c4 common/libcommon.o
                0x8081a7c0                usb_stor_read
 .text.usb_stor_get_dev
                0x8081a984       0x28 common/libcommon.o
                0x8081a984                usb_stor_get_dev
 .text.usb_stor_info
                0x8081a9ac       0x74 common/libcommon.o
                0x8081a9ac                usb_stor_info
 .text.usb_storage_probe
                0x8081aa20      0x208 common/libcommon.o
                0x8081aa20                usb_storage_probe
 .text.usb_stor_get_info
                0x8081ac28      0x320 common/libcommon.o
                0x8081ac28                usb_stor_get_info
 .text.usb_stor_scan
                0x8081af48      0x200 common/libcommon.o
                0x8081af48                usb_stor_scan
 .text.CYGACC_COMM_IF_GETC_TIMEOUT.isra.0
                0x8081b148       0x5c common/libcommon.o
 .text.xyzModem_flush
                0x8081b1a4       0x1c common/libcommon.o
 .text.xyzModem_get_hdr
                0x8081b1c0      0x230 common/libcommon.o
 .text.xyzModem_stream_open
                0x8081b3f0      0x23c common/libcommon.o
                0x8081b3f0                xyzModem_stream_open
 .text.xyzModem_stream_read
                0x8081b62c      0x258 common/libcommon.o
                0x8081b62c                xyzModem_stream_read
 .text.xyzModem_stream_close
                0x8081b884       0x54 common/libcommon.o
                0x8081b884                xyzModem_stream_close
 .text.xyzModem_stream_terminate
                0x8081b8d8       0x94 common/libcommon.o
                0x8081b8d8                xyzModem_stream_terminate
 .text.xyzModem_error
                0x8081b96c       0x20 common/libcommon.o
                0x8081b96c                xyzModem_error
 .text.print_part_header
                0x8081b98c       0xc4 disk/libdisk.o
 .text.get_dev  0x8081ba50       0x70 disk/libdisk.o
                0x8081ba50                get_dev
 .text.dev_print
                0x8081bac0      0x204 disk/libdisk.o
                0x8081bac0                dev_print
 .text.init_part
                0x8081bcc4       0x34 disk/libdisk.o
                0x8081bcc4                init_part
 .text.print_part
                0x8081bcf8       0x64 disk/libdisk.o
                0x8081bcf8                print_part
 .text.get_partition_info
                0x8081bd5c       0x44 disk/libdisk.o
                0x8081bd5c                get_partition_info
 .text.get_device
                0x8081bda0       0x84 disk/libdisk.o
                0x8081bda0                get_device
 .text.get_device_and_partition
                0x8081be24      0x444 disk/libdisk.o
                0x8081be24                get_device_and_partition
 .text.get_partition_info_extended
                0x8081c268      0x2f4 disk/libdisk.o
 .text.test_block_type
                0x8081c55c       0x84 disk/libdisk.o
 .text.print_partition_extended
                0x8081c5e0      0x278 disk/libdisk.o
 .text.test_part_dos
                0x8081c858       0x64 disk/libdisk.o
                0x8081c858                test_part_dos
 .text.print_part_dos
                0x8081c8bc       0x34 disk/libdisk.o
                0x8081c8bc                print_part_dos
 .text.get_partition_info_dos
                0x8081c8f0       0x24 disk/libdisk.o
                0x8081c8f0                get_partition_info_dos
 .text.print_efiname
                0x8081c914       0x60 disk/libdisk.o
 .text.uuid_string
                0x8081c974       0x6c disk/libdisk.o
 .text.is_pte_valid
                0x8081c9e0       0x58 disk/libdisk.o
 .text.string_uuid
                0x8081ca38      0x168 disk/libdisk.o
 .text.is_gpt_valid.constprop.2
                0x8081cba0      0x298 disk/libdisk.o
 .text.print_part_efi
                0x8081ce38      0x188 disk/libdisk.o
                0x8081ce38                print_part_efi
 .text.get_partition_info_efi
                0x8081cfc0      0x178 disk/libdisk.o
                0x8081cfc0                get_partition_info_efi
 .text.test_part_efi
                0x8081d138       0xd4 disk/libdisk.o
                0x8081d138                test_part_efi
 .text.write_gpt_table
                0x8081d20c      0x1ec disk/libdisk.o
                0x8081d20c                write_gpt_table
 .text.gpt_fill_pte
                0x8081d3f8      0x1a0 disk/libdisk.o
                0x8081d3f8                gpt_fill_pte
 .text.gpt_fill_header
                0x8081d598      0x154 disk/libdisk.o
                0x8081d598                gpt_fill_header
 .text.gpt_restore
                0x8081d6ec       0xf4 disk/libdisk.o
                0x8081d6ec                gpt_restore
 .text.dfu_write_buffer_drain
                0x8081d7e0       0x8c drivers/dfu/libdfu.o
 .text.dfu_reset
                0x8081d86c       0x10 drivers/dfu/libdfu.o
                0x8081d86c                dfu_reset
 .text.dfu_trigger_reset
                0x8081d87c       0x14 drivers/dfu/libdfu.o
                0x8081d87c                dfu_trigger_reset
 .text.dfu_free_buf
                0x8081d890       0x20 drivers/dfu/libdfu.o
                0x8081d890                dfu_free_buf
 .text.dfu_get_buf
                0x8081d8b0       0x84 drivers/dfu/libdfu.o
                0x8081d8b0                dfu_get_buf
 .text.dfu_write
                0x8081d934      0x1dc drivers/dfu/libdfu.o
                0x8081d934                dfu_write
 .text.dfu_read
                0x8081db10      0x254 drivers/dfu/libdfu.o
                0x8081db10                dfu_read
 .text.dfu_free_entities
                0x8081dd64       0x74 drivers/dfu/libdfu.o
                0x8081dd64                dfu_free_entities
 .text.dfu_config_entities
                0x8081ddd8      0x17c drivers/dfu/libdfu.o
                0x8081ddd8                dfu_config_entities
 .text.dfu_init_env_entities
                0x8081df54       0x90 drivers/dfu/libdfu.o
                0x8081df54                dfu_init_env_entities
 .text.dfu_get_dev_type
                0x8081dfe4       0x3c drivers/dfu/libdfu.o
                0x8081dfe4                dfu_get_dev_type
 .text.dfu_get_layout
                0x8081e020       0x3c drivers/dfu/libdfu.o
                0x8081e020                dfu_get_layout
 .text.dfu_show_entities
                0x8081e05c       0x74 drivers/dfu/libdfu.o
                0x8081e05c                dfu_show_entities
 .text.dfu_get_alt_number
                0x8081e0d0       0x10 drivers/dfu/libdfu.o
                0x8081e0d0                dfu_get_alt_number
 .text.dfu_get_entity
                0x8081e0e0       0x40 drivers/dfu/libdfu.o
                0x8081e0e0                dfu_get_entity
 .text.mmc_block_op
                0x8081e120       0xf4 drivers/dfu/libdfu.o
 .text.mmc_file_op
                0x8081e214      0x190 drivers/dfu/libdfu.o
 .text.dfu_write_medium_mmc
                0x8081e3a4       0xb4 drivers/dfu/libdfu.o
                0x8081e3a4                dfu_write_medium_mmc
 .text.dfu_flush_medium_mmc
                0x8081e458       0x44 drivers/dfu/libdfu.o
                0x8081e458                dfu_flush_medium_mmc
 .text.dfu_read_medium_mmc
                0x8081e49c       0x6c drivers/dfu/libdfu.o
                0x8081e49c                dfu_read_medium_mmc
 .text.dfu_fill_entity_mmc
                0x8081e508      0x228 drivers/dfu/libdfu.o
                0x8081e508                dfu_fill_entity_mmc
 .text.dfu_flush_medium_nand
                0x8081e730       0xdc drivers/dfu/libdfu.o
 .text.nand_block_op
                0x8081e80c      0x1c0 drivers/dfu/libdfu.o
 .text.dfu_write_medium_nand
                0x8081e9cc       0x44 drivers/dfu/libdfu.o
 .text.dfu_read_medium_nand
                0x8081ea10       0x40 drivers/dfu/libdfu.o
 .text.dfu_fill_entity_nand
                0x8081ea50      0x1e8 drivers/dfu/libdfu.o
                0x8081ea50                dfu_fill_entity_nand
 .text.dfu_write_medium_ram
                0x8081ec38       0x9c drivers/dfu/libdfu.o
 .text.dfu_read_medium_ram
                0x8081ecd4       0xb4 drivers/dfu/libdfu.o
 .text.dfu_fill_entity_ram
                0x8081ed88       0xdc drivers/dfu/libdfu.o
                0x8081ed88                dfu_fill_entity_ram
 .text.check_gpio
                0x8081ee64       0x2c drivers/gpio/libgpio.o
 .text._set_gpio_dataout
                0x8081ee90       0x44 drivers/gpio/libgpio.o
 .text.gpio_is_valid
                0x8081eed4       0x10 drivers/gpio/libgpio.o
                0x8081eed4                gpio_is_valid
 .text.gpio_get_value
                0x8081eee4       0x70 drivers/gpio/libgpio.o
                0x8081eee4                gpio_get_value
 .text.gpio_direction_input
                0x8081ef54       0x5c drivers/gpio/libgpio.o
                0x8081ef54                gpio_direction_input
 .text.gpio_direction_output
                0x8081efb0       0x70 drivers/gpio/libgpio.o
                0x8081efb0                gpio_direction_output
 .text.gpio_request
                0x8081f020       0x10 drivers/gpio/libgpio.o
                0x8081f020                gpio_request
 .text.gpio_free
                0x8081f030        0x8 drivers/gpio/libgpio.o
                0x8081f030                gpio_free
 .text.flush_fifo
                0x8081f038       0x3c drivers/i2c/libi2c.o
 .text.wait_for_bb
                0x8081f074       0x8c drivers/i2c/libi2c.o
 .text.wait_for_event
                0x8081f100       0x80 drivers/i2c/libi2c.o
 .text.i2c_init
                0x8081f180      0x1a4 drivers/i2c/libi2c.o
                0x8081f180                i2c_init
 .text.i2c_probe
                0x8081f324       0xf4 drivers/i2c/libi2c.o
                0x8081f324                i2c_probe
 .text.i2c_read
                0x8081f418      0x218 drivers/i2c/libi2c.o
                0x8081f418                i2c_read
 .text.i2c_write
                0x8081f630      0x1f4 drivers/i2c/libi2c.o
                0x8081f630                i2c_write
 .text.i2c_set_bus_num
                0x8081f824       0x94 drivers/i2c/libi2c.o
                0x8081f824                i2c_set_bus_num
 .text.i2c_get_bus_num
                0x8081f8b8       0x10 drivers/i2c/libi2c.o
                0x8081f8b8                i2c_get_bus_num
 .text.mmc_set_ios
                0x8081f8c8      0x120 drivers/mmc/libmmc.o
 .text.mmc_set_capacity
                0x8081f9e8       0xa8 drivers/mmc/libmmc.o
 .text.board_mmc_getwp
                0x8081fa90        0x8 drivers/mmc/libmmc.o
                0x8081fa90                board_mmc_getwp
 .text.mmc_getwp
                0x8081fa98       0x34 drivers/mmc/libmmc.o
                0x8081fa98                mmc_getwp
 .text.__board_mmc_getcd
                0x8081facc        0x8 drivers/mmc/libmmc.o
                0x8081facc                __board_mmc_getcd
                0x8081facc                board_mmc_getcd
 .text.mmc_send_cmd
                0x8081fad4      0x3cc drivers/mmc/libmmc.o
                0x8081fad4                mmc_send_cmd
 .text.mmc_go_idle
                0x8081fea0       0x4c drivers/mmc/libmmc.o
 .text.mmc_send_op_cond_iter
                0x8081feec       0x7c drivers/mmc/libmmc.o
 .text.mmc_send_ext_csd
                0x8081ff68       0x4c drivers/mmc/libmmc.o
 .text.mmc_send_status
                0x8081ffb4       0xc4 drivers/mmc/libmmc.o
                0x8081ffb4                mmc_send_status
 .text.mmc_switch.isra.1
                0x80820078       0x54 drivers/mmc/libmmc.o
 .text.mmc_set_blocklen
                0x808200cc       0x30 drivers/mmc/libmmc.o
                0x808200cc                mmc_set_blocklen
 .text.find_mmc_device
                0x808200fc       0x4c drivers/mmc/libmmc.o
                0x808200fc                find_mmc_device
 .text.mmc_bread
                0x80820148      0x144 drivers/mmc/libmmc.o
 .text.mmc_send_op_cond
                0x8082028c       0x74 drivers/mmc/libmmc.o
                0x8082028c                mmc_send_op_cond
 .text.mmc_complete_op_cond
                0x80820300       0x88 drivers/mmc/libmmc.o
                0x80820300                mmc_complete_op_cond
 .text.mmc_switch_part
                0x80820388       0x4c drivers/mmc/libmmc.o
                0x80820388                mmc_switch_part
 .text.mmc_getcd
                0x808203d4       0x34 drivers/mmc/libmmc.o
                0x808203d4                mmc_getcd
 .text.mmc_set_clock
                0x80820408       0x20 drivers/mmc/libmmc.o
                0x80820408                mmc_set_clock
 .text.mmc_startup
                0x80820428      0xa40 drivers/mmc/libmmc.o
 .text.mmc_register
                0x80820e68       0x84 drivers/mmc/libmmc.o
                0x80820e68                mmc_register
 .text.mmc_start_init
                0x80820eec      0x204 drivers/mmc/libmmc.o
                0x80820eec                mmc_start_init
 .text.mmc_init
                0x808210f0       0x90 drivers/mmc/libmmc.o
                0x808210f0                mmc_init
 .text.mmc_get_dev
                0x80821180       0x2c drivers/mmc/libmmc.o
                0x80821180                mmc_get_dev
 .text.__def_mmc_init
                0x808211ac        0x8 drivers/mmc/libmmc.o
                0x808211ac                board_mmc_init
 .text.print_mmc_devices
                0x808211b4       0x68 drivers/mmc/libmmc.o
                0x808211b4                print_mmc_devices
 .text.get_mmc_num
                0x8082121c       0x10 drivers/mmc/libmmc.o
                0x8082121c                get_mmc_num
 .text.mmc_initialize
                0x8082122c       0x74 drivers/mmc/libmmc.o
                0x8082122c                mmc_initialize
 .text.omap_mmc_getwp
                0x808212a0        0xc drivers/mmc/libmmc.o
 .text.omap_mmc_getcd
                0x808212ac        0xc drivers/mmc/libmmc.o
 .text.omap_mmc_setup_gpio_in
                0x808212b8       0x4c drivers/mmc/libmmc.o
 .text.mmc_reset_controller_fsm
                0x80821304       0x9c drivers/mmc/libmmc.o
 .text.mmc_init_stream
                0x808213a0       0xa8 drivers/mmc/libmmc.o
                0x808213a0                mmc_init_stream
 .text.mmc_init_setup
                0x80821448      0x150 drivers/mmc/libmmc.o
 .text.omap_mmc_init
                0x80821598      0x1ac drivers/mmc/libmmc.o
                0x80821598                omap_mmc_init
 .text.mmc_berase
                0x80821744      0x198 drivers/mmc/libmmc.o
                0x80821744                mmc_berase
 .text.mmc_bwrite
                0x808218dc      0x164 drivers/mmc/libmmc.o
                0x808218dc                mmc_bwrite
 .text.add_mtd_device
                0x80821a40       0x88 drivers/mtd/libmtd.o
                0x80821a40                add_mtd_device
 .text.del_mtd_device
                0x80821ac8       0x54 drivers/mtd/libmtd.o
                0x80821ac8                del_mtd_device
 .text.get_mtd_device
                0x80821b1c       0x74 drivers/mtd/libmtd.o
                0x80821b1c                get_mtd_device
 .text.get_mtd_device_nm
                0x80821b90       0x6c drivers/mtd/libmtd.o
                0x80821b90                get_mtd_device_nm
 .text.put_mtd_device
                0x80821bfc       0x2c drivers/mtd/libmtd.o
                0x80821bfc                put_mtd_device
 .text.mtd_erase
                0x80821c28       0x90 drivers/mtd/libmtd.o
                0x80821c28                mtd_erase
 .text.mtd_read
                0x80821cb8       0xb8 drivers/mtd/libmtd.o
                0x80821cb8                mtd_read
 .text.mtd_write
                0x80821d70       0x9c drivers/mtd/libmtd.o
                0x80821d70                mtd_write
 .text.mtd_read_oob
                0x80821e0c       0x28 drivers/mtd/libmtd.o
                0x80821e0c                mtd_read_oob
 .text.mtd_get_fact_prot_info
                0x80821e34       0x28 drivers/mtd/libmtd.o
                0x80821e34                mtd_get_fact_prot_info
 .text.mtd_read_fact_prot_reg
                0x80821e5c       0x44 drivers/mtd/libmtd.o
                0x80821e5c                mtd_read_fact_prot_reg
 .text.mtd_get_user_prot_info
                0x80821ea0       0x28 drivers/mtd/libmtd.o
                0x80821ea0                mtd_get_user_prot_info
 .text.mtd_read_user_prot_reg
                0x80821ec8       0x44 drivers/mtd/libmtd.o
                0x80821ec8                mtd_read_user_prot_reg
 .text.mtd_write_user_prot_reg
                0x80821f0c       0x44 drivers/mtd/libmtd.o
                0x80821f0c                mtd_write_user_prot_reg
 .text.mtd_lock_user_prot_reg
                0x80821f50       0x2c drivers/mtd/libmtd.o
                0x80821f50                mtd_lock_user_prot_reg
 .text.mtd_lock
                0x80821f7c       0x74 drivers/mtd/libmtd.o
                0x80821f7c                mtd_lock
 .text.mtd_unlock
                0x80821ff0       0x74 drivers/mtd/libmtd.o
                0x80821ff0                mtd_unlock
 .text.mtd_block_isbad
                0x80822064       0x4c drivers/mtd/libmtd.o
                0x80822064                mtd_block_isbad
 .text.mtd_block_markbad
                0x808220b0       0x60 drivers/mtd/libmtd.o
                0x808220b0                mtd_block_markbad
 .text.part_write_oob
                0x80822110       0xa0 drivers/mtd/libmtd.o
 .text.part_sync
                0x808221b0       0x14 drivers/mtd/libmtd.o
 .text.part_block_isbad
                0x808221c4       0x1c drivers/mtd/libmtd.o
 .text.part_block_markbad
                0x808221e0       0x30 drivers/mtd/libmtd.o
 .text.part_unlock
                0x80822210       0x1c drivers/mtd/libmtd.o
 .text.part_lock
                0x8082222c       0x1c drivers/mtd/libmtd.o
 .text.part_get_fact_prot_info
                0x80822248        0x8 drivers/mtd/libmtd.o
 .text.part_get_user_prot_info
                0x80822250        0x8 drivers/mtd/libmtd.o
 .text.part_lock_user_prot_reg
                0x80822258        0x8 drivers/mtd/libmtd.o
 .text.part_write_user_prot_reg
                0x80822260        0x8 drivers/mtd/libmtd.o
 .text.part_read_fact_prot_reg
                0x80822268        0x8 drivers/mtd/libmtd.o
 .text.part_read_user_prot_reg
                0x80822270        0x8 drivers/mtd/libmtd.o
 .text.part_read_oob
                0x80822278       0x94 drivers/mtd/libmtd.o
 .text.part_write
                0x8082230c       0x1c drivers/mtd/libmtd.o
 .text.part_read
                0x80822328       0x74 drivers/mtd/libmtd.o
 .text.part_erase
                0x8082239c       0x70 drivers/mtd/libmtd.o
 .text.mtd_erase_callback
                0x8082240c       0x6c drivers/mtd/libmtd.o
                0x8082240c                mtd_erase_callback
 .text.del_mtd_partitions
                0x80822478       0x8c drivers/mtd/libmtd.o
                0x80822478                del_mtd_partitions
 .text.add_mtd_partitions
                0x80822504      0x5e4 drivers/mtd/libmtd.o
                0x80822504                add_mtd_partitions
 .text.nand_register
                0x80822ae8       0x94 drivers/mtd/nand/libnand.o
                0x80822ae8                nand_register
 .text.nand_init
                0x80822b7c       0x68 drivers/mtd/nand/libnand.o
                0x80822b7c                nand_init
 .text.verify_bbt_descr
                0x80822be4      0x13c drivers/mtd/nand/libnand.o
 .text.scan_read_oob
                0x80822d20       0xcc drivers/mtd/nand/libnand.o
 .text.check_pattern
                0x80822dec       0xac drivers/mtd/nand/libnand.o
 .text.create_bbt
                0x80822e98      0x2e0 drivers/mtd/nand/libnand.o
 .text.scan_read
                0x80823178       0x58 drivers/mtd/nand/libnand.o
 .text.read_bbt
                0x808231d0      0x1e8 drivers/mtd/nand/libnand.o
 .text.read_abs_bbt
                0x808233b8       0xc8 drivers/mtd/nand/libnand.o
 .text.write_bbt
                0x80823480      0x62c drivers/mtd/nand/libnand.o
 .text.search_bbt
                0x80823aac      0x198 drivers/mtd/nand/libnand.o
 .text.nand_update_bbt
                0x80823c44      0x11c drivers/mtd/nand/libnand.o
                0x80823c44                nand_update_bbt
 .text.mark_bbt_region
                0x80823d60      0x16c drivers/mtd/nand/libnand.o
 .text.nand_scan_bbt
                0x80823ecc      0x4f4 drivers/mtd/nand/libnand.o
                0x80823ecc                nand_scan_bbt
 .text.nand_default_bbt
                0x808243c0      0x104 drivers/mtd/nand/libnand.o
                0x808243c0                nand_default_bbt
 .text.nand_isbad_bbt
                0x808244c4       0x4c drivers/mtd/nand/libnand.o
                0x808244c4                nand_isbad_bbt
 .text.check_skip_len
                0x80824510       0xc0 drivers/mtd/nand/libnand.o
 .text.nand_erase_opts
                0x808245d0      0x380 drivers/mtd/nand/libnand.o
                0x808245d0                nand_erase_opts
 .text.nand_write_skip_bad
                0x80824950      0x244 drivers/mtd/nand/libnand.o
                0x80824950                nand_write_skip_bad
 .text.nand_read_skip_bad
                0x80824b94      0x268 drivers/mtd/nand/libnand.o
                0x80824b94                nand_read_skip_bad
 .text.nand_calculate_ecc
                0x80824dfc       0xf4 drivers/mtd/nand/libnand.o
                0x80824dfc                nand_calculate_ecc
 .text.nand_correct_data
                0x80824ef0      0x120 drivers/mtd/nand/libnand.o
                0x80824ef0                nand_correct_data
 .text.nand_release_device
                0x80825010       0x10 drivers/mtd/nand/libnand.o
 .text.nand_read_byte
                0x80825020       0x14 drivers/mtd/nand/libnand.o
                0x80825020                nand_read_byte
 .text.nand_read_byte16
                0x80825034       0x18 drivers/mtd/nand/libnand.o
 .text.nand_read_word
                0x8082504c       0x14 drivers/mtd/nand/libnand.o
 .text.nand_write_buf
                0x80825060       0x2c drivers/mtd/nand/libnand.o
                0x80825060                nand_write_buf
 .text.nand_read_buf
                0x8082508c       0x2c drivers/mtd/nand/libnand.o
                0x8082508c                nand_read_buf
 .text.nand_verify_buf
                0x808250b8       0x40 drivers/mtd/nand/libnand.o
 .text.nand_write_buf16
                0x808250f8       0x34 drivers/mtd/nand/libnand.o
                0x808250f8                nand_write_buf16
 .text.nand_read_buf16
                0x8082512c       0x34 drivers/mtd/nand/libnand.o
                0x8082512c                nand_read_buf16
 .text.nand_verify_buf16
                0x80825160       0x4c drivers/mtd/nand/libnand.o
 .text.nand_check_wp
                0x808251ac       0x50 drivers/mtd/nand/libnand.o
 .text.nand_read_page_raw_syndrome
                0x808251fc       0xd4 drivers/mtd/nand/libnand.o
 .text.nand_read_page_swecc
                0x808252d0      0x128 drivers/mtd/nand/libnand.o
 .text.nand_read_subpage
                0x808253f8      0x26c drivers/mtd/nand/libnand.o
 .text.nand_read_page_hwecc
                0x80825664      0x148 drivers/mtd/nand/libnand.o
 .text.nand_read_page_hwecc_oob_first
                0x808257ac      0x138 drivers/mtd/nand/libnand.o
 .text.nand_read_page_syndrome
                0x808258e4      0x124 drivers/mtd/nand/libnand.o
 .text.nand_read_oob_std
                0x80825a08       0x3c drivers/mtd/nand/libnand.o
 .text.nand_read_oob_syndrome
                0x80825a44      0x100 drivers/mtd/nand/libnand.o
 .text.nand_write_oob_std
                0x80825b44       0x70 drivers/mtd/nand/libnand.o
 .text.nand_write_oob_syndrome
                0x80825bb4      0x194 drivers/mtd/nand/libnand.o
 .text.nand_write_page_raw_syndrome
                0x80825d48       0xd4 drivers/mtd/nand/libnand.o
 .text.nand_write_page_swecc
                0x80825e1c       0xb8 drivers/mtd/nand/libnand.o
 .text.nand_write_page_hwecc
                0x80825ed4       0xd0 drivers/mtd/nand/libnand.o
 .text.nand_write_page_syndrome
                0x80825fa4       0xf4 drivers/mtd/nand/libnand.o
 .text.single_erase_cmd
                0x80826098       0x3c drivers/mtd/nand/libnand.o
 .text.multi_erase_cmd
                0x808260d4       0x88 drivers/mtd/nand/libnand.o
 .text.nand_sync
                0x8082615c       0x10 drivers/mtd/nand/libnand.o
 .text.nand_onfi_set_features
                0x8082616c       0x64 drivers/mtd/nand/libnand.o
 .text.nand_block_checkbad
                0x808261d0       0x78 drivers/mtd/nand/libnand.o
 .text.nand_block_isbad
                0x80826248       0x1c drivers/mtd/nand/libnand.o
 .text.nand_block_markbad
                0x80826264       0x40 drivers/mtd/nand/libnand.o
 .text.nand_onfi_get_features
                0x808262a4       0x6c drivers/mtd/nand/libnand.o
 .text.nand_block_bad
                0x80826310      0x1a4 drivers/mtd/nand/libnand.o
 .text.nand_wait
                0x808264b4       0xd4 drivers/mtd/nand/libnand.o
 .text.nand_fill_oob
                0x80826588      0x118 drivers/mtd/nand/libnand.o
 .text.nand_do_write_oob
                0x808266a0      0x17c drivers/mtd/nand/libnand.o
 .text.nand_do_write_ops
                0x8082681c      0x340 drivers/mtd/nand/libnand.o
 .text.nand_write_oob
                0x80826b5c       0xa4 drivers/mtd/nand/libnand.o
 .text.nand_write
                0x80826c00       0x64 drivers/mtd/nand/libnand.o
 .text.unlikely.sanitize_string
                0x80826c64       0x38 drivers/mtd/nand/libnand.o
 .text.generic_ffs
                0x80826c9c       0x50 drivers/mtd/nand/libnand.o
 .text.nand_read_page_raw
                0x80826cec       0x44 drivers/mtd/nand/libnand.o
 .text.nand_write_page_raw
                0x80826d30       0x44 drivers/mtd/nand/libnand.o
 .text.nand_write_page
                0x80826d74       0xc0 drivers/mtd/nand/libnand.o
 .text.nand_select_chip
                0x80826e34       0x50 drivers/mtd/nand/libnand.o
 .text.nand_transfer_oob
                0x80826e84      0x100 drivers/mtd/nand/libnand.o
 .text.nand_do_read_ops
                0x80826f84      0x3d4 drivers/mtd/nand/libnand.o
 .text.nand_read_oob
                0x80827358      0x264 drivers/mtd/nand/libnand.o
 .text.nand_read
                0x808275bc       0x64 drivers/mtd/nand/libnand.o
 .text.nand_wait_ready
                0x80827620       0x4c drivers/mtd/nand/libnand.o
                0x80827620                nand_wait_ready
 .text.nand_command
                0x8082766c      0x1cc drivers/mtd/nand/libnand.o
 .text.nand_command_lp
                0x80827838      0x258 drivers/mtd/nand/libnand.o
 .text.nand_erase_nand
                0x80827a90      0x36c drivers/mtd/nand/libnand.o
                0x80827a90                nand_erase_nand
 .text.nand_default_block_markbad
                0x80827dfc      0x1c4 drivers/mtd/nand/libnand.o
 .text.nand_erase
                0x80827fc0        0x8 drivers/mtd/nand/libnand.o
 .text.nand_scan_ident
                0x80827fc8      0x99c drivers/mtd/nand/libnand.o
                0x80827fc8                nand_scan_ident
 .text.nand_scan_tail
                0x80828964      0x5e0 drivers/mtd/nand/libnand.o
                0x80828964                nand_scan_tail
 .text.nand_scan
                0x80828f44       0x24 drivers/mtd/nand/libnand.o
                0x80828f44                nand_scan
 .text.omap_nand_hwcontrol
                0x80828f68       0xa0 drivers/mtd/nand/libnand.o
 .text.omap_enable_hwecc
                0x80829008       0xe0 drivers/mtd/nand/libnand.o
 .text.omap_calculate_ecc
                0x808290e8      0x1a0 drivers/mtd/nand/libnand.o
 .text.omap_read_page_bch
                0x80829288      0x1c0 drivers/mtd/nand/libnand.o
 .text.omap_reverse_list
                0x80829448       0x38 drivers/mtd/nand/libnand.o
                0x80829448                omap_reverse_list
 .text.omap_correct_data_bch
                0x80829480      0x1c0 drivers/mtd/nand/libnand.o
 .text.board_nand_init
                0x80829640      0x1c0 drivers/mtd/nand/libnand.o
                0x80829640                board_nand_init
 .text.elm_check_error
                0x80829800      0x2c0 drivers/mtd/nand/libnand.o
                0x80829800                elm_check_error
 .text.elm_config
                0x80829ac0       0x44 drivers/mtd/nand/libnand.o
                0x80829ac0                elm_config
 .text.elm_reset
                0x80829b04       0x30 drivers/mtd/nand/libnand.o
                0x80829b04                elm_reset
 .text.elm_init
                0x80829b34       0x18 drivers/mtd/nand/libnand.o
                0x80829b34                elm_init
 .text.spi_flash_read_write
                0x80829b4c       0x74 drivers/mtd/spi/libspi_flash.o
 .text.spi_flash_cmd_read
                0x80829bc0       0x20 drivers/mtd/spi/libspi_flash.o
                0x80829bc0                spi_flash_cmd_read
 .text.spi_flash_cmd
                0x80829be0       0x2c drivers/mtd/spi/libspi_flash.o
                0x80829be0                spi_flash_cmd
 .text.spi_flash_cmd_write
                0x80829c0c       0x20 drivers/mtd/spi/libspi_flash.o
                0x80829c0c                spi_flash_cmd_write
 .text.spi_flash_probe
                0x80829c2c      0x260 drivers/mtd/spi/libspi_flash.o
                0x80829c2c                spi_flash_probe
 .text.spi_flash_free
                0x80829e8c       0x1c drivers/mtd/spi/libspi_flash.o
                0x80829e8c                spi_flash_free
 .text.spi_flash_cmd_wait_ready
                0x80829ea8       0xdc drivers/mtd/spi/libspi_flash.o
                0x80829ea8                spi_flash_cmd_wait_ready
 .text.spi_flash_write_common
                0x80829f84       0x9c drivers/mtd/spi/libspi_flash.o
                0x80829f84                spi_flash_write_common
 .text.spi_flash_cmd_erase_ops
                0x8082a020       0xa8 drivers/mtd/spi/libspi_flash.o
                0x8082a020                spi_flash_cmd_erase_ops
 .text.spi_flash_cmd_write_ops
                0x8082a0c8       0xb8 drivers/mtd/spi/libspi_flash.o
                0x8082a0c8                spi_flash_cmd_write_ops
 .text.spi_flash_read_common
                0x8082a180       0x5c drivers/mtd/spi/libspi_flash.o
                0x8082a180                spi_flash_read_common
 .text.spi_flash_cmd_read_ops
                0x8082a1dc      0x100 drivers/mtd/spi/libspi_flash.o
                0x8082a1dc                spi_flash_cmd_read_ops
 .text.kill_volumes
                0x8082a2dc       0x3c drivers/mtd/ubi/libubi.o
 .text.ubi_get_device
                0x8082a318       0x20 drivers/mtd/ubi/libubi.o
                0x8082a318                ubi_get_device
 .text.ubi_put_device
                0x8082a338       0x10 drivers/mtd/ubi/libubi.o
                0x8082a338                ubi_put_device
 .text.ubi_attach_mtd_dev
                0x8082a348      0x728 drivers/mtd/ubi/libubi.o
                0x8082a348                ubi_attach_mtd_dev
 .text.ubi_detach_mtd_dev
                0x8082aa70       0xd4 drivers/mtd/ubi/libubi.o
                0x8082aa70                ubi_detach_mtd_dev
 .text.ubi_init
                0x8082ab44      0x174 drivers/mtd/ubi/libubi.o
                0x8082ab44                ubi_init
 .text.ubi_exit
                0x8082acb8       0x48 drivers/mtd/ubi/libubi.o
                0x8082acb8                ubi_exit
 .text.ubi_mtd_param_parse
                0x8082ad00      0x1c0 drivers/mtd/ubi/libubi.o
                0x8082ad00                ubi_mtd_param_parse
 .text.create_vtbl
                0x8082aec0      0x238 drivers/mtd/ubi/libubi.o
 .text.vtbl_check
                0x8082b0f8      0x2c4 drivers/mtd/ubi/libubi.o
 .text.ubi_change_vtbl_record
                0x8082b3bc       0xb4 drivers/mtd/ubi/libubi.o
                0x8082b3bc                ubi_change_vtbl_record
 .text.ubi_read_volume_table
                0x8082b470      0x798 drivers/mtd/ubi/libubi.o
                0x8082b470                ubi_read_volume_table
 .text.vol_release
                0x8082bc08        0x4 drivers/mtd/ubi/libubi.o
 .text.ubi_create_volume
                0x8082bc0c      0x43c drivers/mtd/ubi/libubi.o
                0x8082bc0c                ubi_create_volume
 .text.ubi_resize_volume
                0x8082c048      0x258 drivers/mtd/ubi/libubi.o
                0x8082c048                ubi_resize_volume
 .text.ubi_add_volume
                0x8082c2a0       0x5c drivers/mtd/ubi/libubi.o
                0x8082c2a0                ubi_add_volume
 .text.ubi_free_volume
                0x8082c2fc       0x14 drivers/mtd/ubi/libubi.o
                0x8082c2fc                ubi_free_volume
 .text.clear_update_marker
                0x8082c310       0xe8 drivers/mtd/ubi/libubi.o
 .text.write_leb
                0x8082c3f8       0xc4 drivers/mtd/ubi/libubi.o
 .text.ubi_start_update
                0x8082c4bc      0x180 drivers/mtd/ubi/libubi.o
                0x8082c4bc                ubi_start_update
 .text.ubi_more_update_data
                0x8082c63c      0x290 drivers/mtd/ubi/libubi.o
                0x8082c63c                ubi_more_update_data
 .text.ubi_get_device_info
                0x8082c8cc       0x60 drivers/mtd/ubi/libubi.o
                0x8082c8cc                ubi_get_device_info
 .text.ubi_get_volume_info
                0x8082c92c       0x78 drivers/mtd/ubi/libubi.o
                0x8082c92c                ubi_get_volume_info
 .text.ubi_close_volume
                0x8082c9a4       0x60 drivers/mtd/ubi/libubi.o
                0x8082c9a4                ubi_close_volume
 .text.ubi_open_volume
                0x8082ca04      0x1a0 drivers/mtd/ubi/libubi.o
                0x8082ca04                ubi_open_volume
 .text.ubi_open_volume_nm
                0x8082cba4       0xdc drivers/mtd/ubi/libubi.o
                0x8082cba4                ubi_open_volume_nm
 .text.ubi_leb_read
                0x8082cc80      0x124 drivers/mtd/ubi/libubi.o
                0x8082cc80                ubi_leb_read
 .text.ubi_leb_unmap
                0x8082cda4       0x68 drivers/mtd/ubi/libubi.o
                0x8082cda4                ubi_leb_unmap
 .text.ubi_is_mapped
                0x8082ce0c       0x48 drivers/mtd/ubi/libubi.o
                0x8082ce0c                ubi_is_mapped
 .text.ltree_lookup.isra.7
                0x8082ce54       0x3c drivers/mtd/ubi/libubi.o
 .text.ltree_add_entry
                0x8082ce90       0xd8 drivers/mtd/ubi/libubi.o
 .text.leb_write_unlock
                0x8082cf68       0x3c drivers/mtd/ubi/libubi.o
 .text.leb_read_unlock
                0x8082cfa4       0x3c drivers/mtd/ubi/libubi.o
 .text.ubi_eba_unmap_leb
                0x8082cfe0       0x84 drivers/mtd/ubi/libubi.o
                0x8082cfe0                ubi_eba_unmap_leb
 .text.ubi_eba_read_leb
                0x8082d064      0x270 drivers/mtd/ubi/libubi.o
                0x8082d064                ubi_eba_read_leb
 .text.ubi_eba_write_leb
                0x8082d2d4      0x5b8 drivers/mtd/ubi/libubi.o
                0x8082d2d4                ubi_eba_write_leb
 .text.ubi_eba_write_leb_st
                0x8082d88c      0x320 drivers/mtd/ubi/libubi.o
                0x8082d88c                ubi_eba_write_leb_st
 .text.ubi_eba_copy_leb
                0x8082dbac      0x2b8 drivers/mtd/ubi/libubi.o
                0x8082dbac                ubi_eba_copy_leb
 .text.ubi_eba_init_scan
                0x8082de64      0x230 drivers/mtd/ubi/libubi.o
                0x8082de64                ubi_eba_init_scan
 .text.ubi_eba_close
                0x8082e094       0x38 drivers/mtd/ubi/libubi.o
                0x8082e094                ubi_eba_close
 .text.erase_callback
                0x8082e0cc        0x4 drivers/mtd/ubi/libubi.o
 .text.do_sync_erase
                0x8082e0d0       0xd0 drivers/mtd/ubi/libubi.o
 .text.ubi_io_read
                0x8082e1a0      0x100 drivers/mtd/ubi/libubi.o
                0x8082e1a0                ubi_io_read
 .text.ubi_io_write
                0x8082e2a0       0xa8 drivers/mtd/ubi/libubi.o
                0x8082e2a0                ubi_io_write
 .text.ubi_io_sync_erase
                0x8082e348      0x1d8 drivers/mtd/ubi/libubi.o
                0x8082e348                ubi_io_sync_erase
 .text.ubi_io_is_bad
                0x8082e520       0x58 drivers/mtd/ubi/libubi.o
                0x8082e520                ubi_io_is_bad
 .text.ubi_io_mark_bad
                0x8082e578       0x7c drivers/mtd/ubi/libubi.o
                0x8082e578                ubi_io_mark_bad
 .text.ubi_io_read_ec_hdr
                0x8082e5f4      0x1f8 drivers/mtd/ubi/libubi.o
                0x8082e5f4                ubi_io_read_ec_hdr
 .text.ubi_io_write_ec_hdr
                0x8082e7ec       0x8c drivers/mtd/ubi/libubi.o
                0x8082e7ec                ubi_io_write_ec_hdr
 .text.ubi_io_read_vid_hdr
                0x8082e878      0x284 drivers/mtd/ubi/libubi.o
                0x8082e878                ubi_io_read_vid_hdr
 .text.ubi_io_write_vid_hdr
                0x8082eafc       0x78 drivers/mtd/ubi/libubi.o
                0x8082eafc                ubi_io_write_vid_hdr
 .text.in_wl_tree
                0x8082eb74       0x5c drivers/mtd/ubi/libubi.o
 .text.cancel_pending
                0x8082ebd0       0x54 drivers/mtd/ubi/libubi.o
 .text.do_work  0x8082ec24       0x78 drivers/mtd/ubi/libubi.o
 .text.tree_destroy
                0x8082ec9c       0x58 drivers/mtd/ubi/libubi.o
 .text.find_wl_entry
                0x8082ecf4       0x48 drivers/mtd/ubi/libubi.o
 .text.ensure_wear_leveling
                0x8082ed3c       0xc8 drivers/mtd/ubi/libubi.o
 .text.prot_tree_del
                0x8082ee04       0x60 drivers/mtd/ubi/libubi.o
 .text.prot_tree_add
                0x8082ee64       0xc4 drivers/mtd/ubi/libubi.o
 .text.wl_tree_add
                0x8082ef28       0x60 drivers/mtd/ubi/libubi.o
 .text.schedule_erase
                0x8082ef88       0x6c drivers/mtd/ubi/libubi.o
 .text.erase_worker
                0x8082eff4      0x368 drivers/mtd/ubi/libubi.o
 .text.wear_leveling_worker
                0x8082f35c      0x328 drivers/mtd/ubi/libubi.o
 .text.ubi_wl_get_peb
                0x8082f684      0x17c drivers/mtd/ubi/libubi.o
                0x8082f684                ubi_wl_get_peb
 .text.ubi_wl_put_peb
                0x8082f800      0x118 drivers/mtd/ubi/libubi.o
                0x8082f800                ubi_wl_put_peb
 .text.ubi_wl_scrub_peb
                0x8082f918       0xf8 drivers/mtd/ubi/libubi.o
                0x8082f918                ubi_wl_scrub_peb
 .text.ubi_wl_flush
                0x8082fa10       0x48 drivers/mtd/ubi/libubi.o
                0x8082fa10                ubi_wl_flush
 .text.ubi_wl_init_scan
                0x8082fa58      0x2cc drivers/mtd/ubi/libubi.o
                0x8082fa58                ubi_wl_init_scan
 .text.ubi_wl_close
                0x8082fd24       0x94 drivers/mtd/ubi/libubi.o
                0x8082fd24                ubi_wl_close
 .text.validate_vid_hdr
                0x8082fdb8       0x8c drivers/mtd/ubi/libubi.o
 .text.add_to_list
                0x8082fe44       0xa4 drivers/mtd/ubi/libubi.o
 .text.ubi_scan_add_used
                0x8082fee8      0x648 drivers/mtd/ubi/libubi.o
                0x8082fee8                ubi_scan_add_used
 .text.ubi_scan_find_sv
                0x80830530       0x34 drivers/mtd/ubi/libubi.o
                0x80830530                ubi_scan_find_sv
 .text.ubi_scan_find_seb
                0x80830564       0x34 drivers/mtd/ubi/libubi.o
                0x80830564                ubi_scan_find_seb
 .text.ubi_scan_rm_volume
                0x80830598       0x68 drivers/mtd/ubi/libubi.o
                0x80830598                ubi_scan_rm_volume
 .text.ubi_scan_erase_peb
                0x80830600       0xbc drivers/mtd/ubi/libubi.o
                0x80830600                ubi_scan_erase_peb
 .text.ubi_scan_get_free_peb
                0x808306bc       0xf4 drivers/mtd/ubi/libubi.o
                0x808306bc                ubi_scan_get_free_peb
 .text.ubi_scan_destroy_si
                0x808307b0      0x208 drivers/mtd/ubi/libubi.o
                0x808307b0                ubi_scan_destroy_si
 .text.ubi_scan
                0x808309b8      0x5d4 drivers/mtd/ubi/libubi.o
                0x808309b8                ubi_scan
 .text.crc32_le
                0x80830f8c       0xd8 drivers/mtd/ubi/libubi.o
                0x80830f8c                crc32_le
 .text.ubi_calc_data_len
                0x80831064       0x2c drivers/mtd/ubi/libubi.o
                0x80831064                ubi_calc_data_len
 .text.ubi_check_volume
                0x80831090       0xb4 drivers/mtd/ubi/libubi.o
                0x80831090                ubi_check_volume
 .text.ubi_calculate_reserved
                0x80831144       0x28 drivers/mtd/ubi/libubi.o
                0x80831144                ubi_calculate_reserved
 .text.genphy_shutdown
                0x8083116c        0x8 drivers/net/phy/libphy.o
                0x8083116c                genphy_shutdown
 .text.genphy_restart_aneg
                0x80831174       0x5c drivers/net/phy/libphy.o
                0x80831174                genphy_restart_aneg
 .text.genphy_config_aneg
                0x808311d0      0x1dc drivers/net/phy/libphy.o
                0x808311d0                genphy_config_aneg
 .text.genphy_update_link
                0x808313ac      0x140 drivers/net/phy/libphy.o
                0x808313ac                genphy_update_link
 .text.phy_init
                0x808314ec       0x10 drivers/net/phy/libphy.o
                0x808314ec                phy_init
 .text.phy_register
                0x808314fc       0x28 drivers/net/phy/libphy.o
                0x808314fc                phy_register
 .text.smsc_startup
                0x80831524       0x4c drivers/net/phy/libphy.o
 .text.phy_smsc_init
                0x80831570       0x30 drivers/net/phy/libphy.o
                0x80831570                phy_smsc_init
 .text.NS16550_init
                0x808315a0       0x64 drivers/serial/libserial.o
                0x808315a0                NS16550_init
 .text.NS16550_reinit
                0x80831604       0x4c drivers/serial/libserial.o
                0x80831604                NS16550_reinit
 .text.NS16550_putc
                0x80831650       0x18 drivers/serial/libserial.o
                0x80831650                NS16550_putc
 .text.NS16550_getc
                0x80831668       0x1c drivers/serial/libserial.o
                0x80831668                NS16550_getc
 .text.NS16550_tstc
                0x80831684       0x10 drivers/serial/libserial.o
                0x80831684                NS16550_tstc
 .text.get_current
                0x80831694       0x40 drivers/serial/libserial.o
 .text.serial_null
                0x808316d4        0x4 drivers/serial/libserial.o
                0x808316d4                jz_serial_initialize
                0x808316d4                bfin_serial_initialize
                0x808316d4                p3mx_serial_initialize
                0x808316d4                leon2_serial_initialize
                0x808316d4                leon3_serial_initialize
                0x808316d4                amirix_serial_initialize
                0x808316d4                marvell_serial_initialize
                0x808316d4                cpci750_serial_initialize
                0x808316d4                asc_serial_initialize
                0x808316d4                altera_serial_initialize
                0x808316d4                oc_serial_initialize
                0x808316d4                sh_serial_initialize
                0x808316d4                mxs_auart_initialize
                0x808316d4                arm_dcc_initialize
                0x808316d4                bmw_serial_initialize
                0x808316d4                mcf_serial_initialize
                0x808316d4                lh7a40x_serial_initialize
                0x808316d4                evb64260_serial_initialize
                0x808316d4                lpc32xx_serial_initialize
                0x808316d4                max3100_serial_initialize
                0x808316d4                mpc85xx_serial_initialize
                0x808316d4                imx_serial_initialize
                0x808316d4                ixp_serial_initialize
                0x808316d4                bfin_jtag_initialize
                0x808316d4                cogent_serial_initialize
                0x808316d4                clps7111_serial_initialize
                0x808316d4                ml2_serial_initialize
                0x808316d4                sandbox_serial_initialize
                0x808316d4                s3c24xx_serial_initialize
                0x808316d4                sconsole_serial_initialize
                0x808316d4                uartlite_serial_initialize
                0x808316d4                au1x00_serial_initialize
                0x808316d4                pxa_serial_initialize
                0x808316d4                atmel_serial_initialize
                0x808316d4                pl01x_serial_initialize
                0x808316d4                altera_jtag_serial_initialize
                0x808316d4                zynq_serial_initalize
                0x808316d4                mpc512x_serial_initialize
                0x808316d4                s5p_serial_initialize
                0x808316d4                ks8695_serial_initialize
                0x808316d4                sa1100_serial_initialize
                0x808316d4                mpc8260_scc_serial_initialize
                0x808316d4                mxc_serial_initialize
                0x808316d4                iop480_serial_initialize
                0x808316d4                mpc8xx_serial_initialize
                0x808316d4                mpc8260_smc_serial_initialize
                0x808316d4                mpc5xx_serial_initialize
 .text.serial_register
                0x808316d8       0x18 drivers/serial/libserial.o
                0x808316d8                serial_register
 .text.serial_stdio_init
                0x808316f0       0x88 drivers/serial/libserial.o
                0x808316f0                serial_stdio_init
 .text.serial_assign
                0x80831778       0x4c drivers/serial/libserial.o
                0x80831778                serial_assign
 .text.serial_initialize
                0x808317c4       0xd0 drivers/serial/libserial.o
                0x808317c4                serial_initialize
 .text.serial_init
                0x80831894       0x14 drivers/serial/libserial.o
                0x80831894                serial_init
 .text.serial_setbrg
                0x808318a8       0x14 drivers/serial/libserial.o
                0x808318a8                serial_setbrg
 .text.on_baudrate
                0x808318bc       0xec drivers/serial/libserial.o
 .text.serial_getc
                0x808319a8       0x14 drivers/serial/libserial.o
                0x808319a8                serial_getc
 .text.serial_tstc
                0x808319bc       0x14 drivers/serial/libserial.o
                0x808319bc                serial_tstc
 .text.serial_putc
                0x808319d0       0x1c drivers/serial/libserial.o
                0x808319d0                serial_putc
 .text.serial_puts
                0x808319ec       0x1c drivers/serial/libserial.o
                0x808319ec                serial_puts
 .text.calc_divisor.isra.0
                0x80831a08       0x28 drivers/serial/libserial.o
 .text.eserial1_init
                0x80831a30       0x20 drivers/serial/libserial.o
 .text.eserial2_init
                0x80831a50       0x20 drivers/serial/libserial.o
 .text.eserial3_init
                0x80831a70       0x20 drivers/serial/libserial.o
 .text.eserial4_init
                0x80831a90       0x20 drivers/serial/libserial.o
 .text.eserial5_init
                0x80831ab0       0x20 drivers/serial/libserial.o
 .text.eserial6_init
                0x80831ad0       0x20 drivers/serial/libserial.o
 .text._serial_putc
                0x80831af0       0x38 drivers/serial/libserial.o
                0x80831af0                _serial_putc
 .text.eserial1_putc
                0x80831b28        0x8 drivers/serial/libserial.o
 .text.eserial2_putc
                0x80831b30        0x8 drivers/serial/libserial.o
 .text.eserial3_putc
                0x80831b38        0x8 drivers/serial/libserial.o
 .text.eserial4_putc
                0x80831b40        0x8 drivers/serial/libserial.o
 .text.eserial5_putc
                0x80831b48        0x8 drivers/serial/libserial.o
 .text.eserial6_putc
                0x80831b50        0x8 drivers/serial/libserial.o
 .text._serial_puts
                0x80831b58       0x28 drivers/serial/libserial.o
                0x80831b58                _serial_puts
 .text.eserial1_puts
                0x80831b80        0x8 drivers/serial/libserial.o
 .text.eserial2_puts
                0x80831b88        0x8 drivers/serial/libserial.o
 .text.eserial3_puts
                0x80831b90        0x8 drivers/serial/libserial.o
 .text.eserial4_puts
                0x80831b98        0x8 drivers/serial/libserial.o
 .text.eserial5_puts
                0x80831ba0        0x8 drivers/serial/libserial.o
 .text.eserial6_puts
                0x80831ba8        0x8 drivers/serial/libserial.o
 .text._serial_getc
                0x80831bb0       0x1c drivers/serial/libserial.o
                0x80831bb0                _serial_getc
 .text.eserial1_getc
                0x80831bcc        0x8 drivers/serial/libserial.o
 .text.eserial2_getc
                0x80831bd4        0x8 drivers/serial/libserial.o
 .text.eserial3_getc
                0x80831bdc        0x8 drivers/serial/libserial.o
 .text.eserial4_getc
                0x80831be4        0x8 drivers/serial/libserial.o
 .text.eserial5_getc
                0x80831bec        0x8 drivers/serial/libserial.o
 .text.eserial6_getc
                0x80831bf4        0x8 drivers/serial/libserial.o
 .text._serial_tstc
                0x80831bfc       0x14 drivers/serial/libserial.o
                0x80831bfc                _serial_tstc
 .text.eserial1_tstc
                0x80831c10        0x8 drivers/serial/libserial.o
 .text.eserial2_tstc
                0x80831c18        0x8 drivers/serial/libserial.o
 .text.eserial3_tstc
                0x80831c20        0x8 drivers/serial/libserial.o
 .text.eserial4_tstc
                0x80831c28        0x8 drivers/serial/libserial.o
 .text.eserial5_tstc
                0x80831c30        0x8 drivers/serial/libserial.o
 .text.eserial6_tstc
                0x80831c38        0x8 drivers/serial/libserial.o
 .text._serial_setbrg
                0x80831c40       0x28 drivers/serial/libserial.o
                0x80831c40                _serial_setbrg
 .text.eserial1_setbrg
                0x80831c68        0x8 drivers/serial/libserial.o
 .text.eserial2_setbrg
                0x80831c70        0x8 drivers/serial/libserial.o
 .text.eserial3_setbrg
                0x80831c78        0x8 drivers/serial/libserial.o
 .text.eserial4_setbrg
                0x80831c80        0x8 drivers/serial/libserial.o
 .text.eserial5_setbrg
                0x80831c88        0x8 drivers/serial/libserial.o
 .text.eserial6_setbrg
                0x80831c90        0x8 drivers/serial/libserial.o
 .text.default_serial_console
                0x80831c98        0xc drivers/serial/libserial.o
                0x80831c98                default_serial_console
 .text.ns16550_serial_initialize
                0x80831ca4       0x50 drivers/serial/libserial.o
                0x80831ca4                ns16550_serial_initialize
 .text.spi_do_alloc_slave
                0x80831cf4       0x44 drivers/spi/libspi.o
                0x80831cf4                spi_do_alloc_slave
 .text.omap3_spi_write_chconf
                0x80831d38       0x28 drivers/spi/libspi.o
 .text.spi_init
                0x80831d60        0x4 drivers/spi/libspi.o
                0x80831d60                spi_init
 .text.spi_setup_slave
                0x80831d64      0x120 drivers/spi/libspi.o
                0x80831d64                spi_setup_slave
 .text.spi_free_slave
                0x80831e84        0x4 drivers/spi/libspi.o
                0x80831e84                spi_free_slave
 .text.spi_claim_bus
                0x80831e88       0xe4 drivers/spi/libspi.o
                0x80831e88                spi_claim_bus
 .text.spi_release_bus
                0x80831f6c       0x38 drivers/spi/libspi.o
                0x80831f6c                spi_release_bus
 .text.omap3_spi_write
                0x80831fa4      0x150 drivers/spi/libspi.o
                0x80831fa4                omap3_spi_write
 .text.omap3_spi_read
                0x808320f4      0x148 drivers/spi/libspi.o
                0x808320f4                omap3_spi_read
 .text.omap3_spi_txrx
                0x8083223c      0x19c drivers/spi/libspi.o
                0x8083223c                omap3_spi_txrx
 .text.spi_xfer
                0x808323d8      0x110 drivers/spi/libspi.o
                0x808323d8                spi_xfer
 .text.usb_ep_autoconfig
                0x808324e8      0x1f8 drivers/usb/gadget/libusb_gadget.o
                0x808324e8                usb_ep_autoconfig
 .text.usb_ep_autoconfig_reset
                0x808326e0       0x38 drivers/usb/gadget/libusb_gadget.o
                0x808326e0                usb_ep_autoconfig_reset
 .text.usb_descriptor_fillbuf
                0x80832718       0x64 drivers/usb/gadget/libusb_gadget.o
                0x80832718                usb_descriptor_fillbuf
 .text.usb_gadget_config_buf
                0x8083277c       0x94 drivers/usb/gadget/libusb_gadget.o
                0x8083277c                usb_gadget_config_buf
 .text.usb_gadget_get_string
                0x80832810      0x184 drivers/usb/gadget/libusb_gadget.o
                0x80832810                usb_gadget_get_string
 .text.count_configs
                0x80832994       0x68 drivers/usb/gadget/libusb_gadget.o
 .text.collect_langs
                0x808329fc       0x50 drivers/usb/gadget/libusb_gadget.o
 .text.composite_setup_complete
                0x80832a4c        0x4 drivers/usb/gadget/libusb_gadget.o
 .text.composite_suspend
                0x80832a50       0x80 drivers/usb/gadget/libusb_gadget.o
 .text.composite_resume
                0x80832ad0       0x7c drivers/usb/gadget/libusb_gadget.o
 .text.lookup_string
                0x80832b4c       0x4c drivers/usb/gadget/libusb_gadget.o
 .text.composite_unbind
                0x80832b98      0x120 drivers/usb/gadget/libusb_gadget.o
 .text.g_dnl_unbind
                0x80832cb8       0x3c drivers/usb/gadget/libusb_gadget.o
 .text.composite_bind
                0x80832cf4      0x128 drivers/usb/gadget/libusb_gadget.o
 .text.g_dnl_do_config
                0x80832e1c       0x80 drivers/usb/gadget/libusb_gadget.o
 .text.reset_config.isra.6
                0x80832e9c       0x5c drivers/usb/gadget/libusb_gadget.o
 .text.composite_disconnect
                0x80832ef8       0x40 drivers/usb/gadget/libusb_gadget.o
 .text.composite_setup
                0x80832f38      0x7e8 drivers/usb/gadget/libusb_gadget.o
 .text.usb_add_function
                0x80833720       0xc4 drivers/usb/gadget/libusb_gadget.o
                0x80833720                usb_add_function
 .text.usb_interface_id
                0x808337e4       0x28 drivers/usb/gadget/libusb_gadget.o
                0x808337e4                usb_interface_id
 .text.usb_add_config
                0x8083380c       0xcc drivers/usb/gadget/libusb_gadget.o
                0x8083380c                usb_add_config
 .text.usb_string_id
                0x808338d8       0x20 drivers/usb/gadget/libusb_gadget.o
                0x808338d8                usb_string_id
 .text.usb_composite_register
                0x808338f8       0x60 drivers/usb/gadget/libusb_gadget.o
                0x808338f8                usb_composite_register
 .text.usb_composite_unregister
                0x80833958       0x30 drivers/usb/gadget/libusb_gadget.o
                0x80833958                usb_composite_unregister
 .text.g_dnl_bind_fixup
                0x80833988        0x8 drivers/usb/gadget/libusb_gadget.o
                0x80833988                g_dnl_bind_fixup
 .text.g_dnl_bind
                0x80833990      0x12c drivers/usb/gadget/libusb_gadget.o
 .text.g_dnl_register
                0x80833abc       0xc8 drivers/usb/gadget/libusb_gadget.o
                0x80833abc                g_dnl_register
 .text.g_dnl_unregister
                0x80833b84        0xc drivers/usb/gadget/libusb_gadget.o
                0x80833b84                g_dnl_unregister
 .text.handle_getstatus
                0x80833b90       0x44 drivers/usb/gadget/libusb_gadget.o
 .text.handle_getstate
                0x80833bd4       0x1c drivers/usb/gadget/libusb_gadget.o
 .text.state_app_detach
                0x80833bf0       0x48 drivers/usb/gadget/libusb_gadget.o
 .text.state_dfu_dnload_sync
                0x80833c38       0x48 drivers/usb/gadget/libusb_gadget.o
 .text.state_dfu_dnbusy
                0x80833c80       0x30 drivers/usb/gadget/libusb_gadget.o
 .text.state_dfu_manifest_sync
                0x80833cb0       0x58 drivers/usb/gadget/libusb_gadget.o
 .text.state_dfu_error
                0x80833d08       0x64 drivers/usb/gadget/libusb_gadget.o
 .text.dfu_set_alt
                0x80833d6c        0xc drivers/usb/gadget/libusb_gadget.o
 .text.dfu_disable
                0x80833d78       0x14 drivers/usb/gadget/libusb_gadget.o
 .text.dfu_handle
                0x80833d8c       0xd4 drivers/usb/gadget/libusb_gadget.o
 .text.dnload_request_complete
                0x80833e60       0x3c drivers/usb/gadget/libusb_gadget.o
 .text.dfu_unbind
                0x80833e9c       0x8c drivers/usb/gadget/libusb_gadget.o
 .text.state_app_idle
                0x80833f28       0x68 drivers/usb/gadget/libusb_gadget.o
 .text.dfu_bind
                0x80833f90      0x1e8 drivers/usb/gadget/libusb_gadget.o
 .text.handle_upload.isra.4
                0x80834178       0x24 drivers/usb/gadget/libusb_gadget.o
 .text.state_dfu_upload_idle
                0x8083419c       0x90 drivers/usb/gadget/libusb_gadget.o
 .text.state_dfu_idle
                0x8083422c       0xd8 drivers/usb/gadget/libusb_gadget.o
 .text.state_dfu_dnload_idle
                0x80834304       0xac drivers/usb/gadget/libusb_gadget.o
 .text.dfu_add  0x808343b0       0xd8 drivers/usb/gadget/libusb_gadget.o
                0x808343b0                dfu_add
 .text.eth_setup_complete
                0x80834488        0x4 drivers/usb/gadget/libusb_gadget.o
 .text.rndis_response_complete
                0x8083448c        0x4 drivers/usb/gadget/libusb_gadget.o
 .text.tx_complete
                0x80834490       0x5c drivers/usb/gadget/libusb_gadget.o
 .text.eth_suspend
                0x808344ec        0x4 drivers/usb/gadget/libusb_gadget.o
 .text.eth_resume
                0x808344f0        0x4 drivers/usb/gadget/libusb_gadget.o
 .text.rndis_command_complete
                0x808344f4       0x4c drivers/usb/gadget/libusb_gadget.o
 .text.eth_unbind
                0x80834540       0xb8 drivers/usb/gadget/libusb_gadget.o
 .text.rndis_control_ack_complete
                0x808345f8       0x78 drivers/usb/gadget/libusb_gadget.o
 .text.rndis_control_ack
                0x80834670       0xc8 drivers/usb/gadget/libusb_gadget.o
 .text.nibble   0x80834738       0x40 drivers/usb/gadget/libusb_gadget.o
 .text.get_ether_addr
                0x80834778       0xa0 drivers/usb/gadget/libusb_gadget.o
 .text.rx_complete
                0x80834818       0xf0 drivers/usb/gadget/libusb_gadget.o
 .text.usb_eth_send
                0x80834908      0x170 drivers/usb/gadget/libusb_gadget.o
 .text.eth_reset_config
                0x80834a78       0xd4 drivers/usb/gadget/libusb_gadget.o
 .text.eth_disconnect
                0x80834b4c        0x8 drivers/usb/gadget/libusb_gadget.o
 .text.set_ether_config.isra.13
                0x80834b54      0x210 drivers/usb/gadget/libusb_gadget.o
 .text.is_eth_addr_valid.part.17
                0x80834d64       0xb4 drivers/usb/gadget/libusb_gadget.o
 .text.usb_eth_halt
                0x80834e18       0xc4 drivers/usb/gadget/libusb_gadget.o
                0x80834e18                usb_eth_halt
 .text.rx_submit.constprop.19
                0x80834edc       0xbc drivers/usb/gadget/libusb_gadget.o
 .text.usb_eth_recv
                0x80834f98       0x80 drivers/usb/gadget/libusb_gadget.o
 .text.eth_setup
                0x80835018      0x474 drivers/usb/gadget/libusb_gadget.o
 .text.strlcpy  0x8083548c       0x50 drivers/usb/gadget/libusb_gadget.o
                0x8083548c                strlcpy
 .text.eth_bind
                0x808354dc      0x554 drivers/usb/gadget/libusb_gadget.o
 .text.usb_eth_init
                0x80835a30      0x218 drivers/usb/gadget/libusb_gadget.o
 .text.usb_eth_initialize
                0x80835c48       0x60 drivers/usb/gadget/libusb_gadget.o
                0x80835c48                usb_eth_initialize
 .text.rndis_add_response
                0x80835ca8       0x60 drivers/usb/gadget/libusb_gadget.o
 .text.rndis_signal_connect
                0x80835d08       0x90 drivers/usb/gadget/libusb_gadget.o
                0x80835d08                rndis_signal_connect
 .text.rndis_signal_disconnect
                0x80835d98       0x20 drivers/usb/gadget/libusb_gadget.o
                0x80835d98                rndis_signal_disconnect
 .text.rndis_set_host_mac
                0x80835db8       0x18 drivers/usb/gadget/libusb_gadget.o
                0x80835db8                rndis_set_host_mac
 .text.rndis_get_state
                0x80835dd0       0x1c drivers/usb/gadget/libusb_gadget.o
                0x80835dd0                rndis_get_state
 .text.rndis_msg_parser
                0x80835dec      0x754 drivers/usb/gadget/libusb_gadget.o
                0x80835dec                rndis_msg_parser
 .text.rndis_register
                0x80836540       0x28 drivers/usb/gadget/libusb_gadget.o
                0x80836540                rndis_register
 .text.rndis_deregister
                0x80836568       0x20 drivers/usb/gadget/libusb_gadget.o
                0x80836568                rndis_deregister
 .text.rndis_set_param_dev
                0x80836588       0x40 drivers/usb/gadget/libusb_gadget.o
                0x80836588                rndis_set_param_dev
 .text.rndis_set_param_vendor
                0x808365c8       0x2c drivers/usb/gadget/libusb_gadget.o
                0x808365c8                rndis_set_param_vendor
 .text.rndis_set_param_medium
                0x808365f4       0x1c drivers/usb/gadget/libusb_gadget.o
                0x808365f4                rndis_set_param_medium
 .text.rndis_add_hdr
                0x80836610       0x54 drivers/usb/gadget/libusb_gadget.o
                0x80836610                rndis_add_hdr
 .text.rndis_free_response
                0x80836664       0x68 drivers/usb/gadget/libusb_gadget.o
                0x80836664                rndis_free_response
 .text.rndis_get_next_response
                0x808366cc       0x74 drivers/usb/gadget/libusb_gadget.o
                0x808366cc                rndis_get_next_response
 .text.rndis_uninit
                0x80836740       0x54 drivers/usb/gadget/libusb_gadget.o
                0x80836740                rndis_uninit
 .text.rndis_rm_hdr
                0x80836794       0x98 drivers/usb/gadget/libusb_gadget.o
                0x80836794                rndis_rm_hdr
 .text.rndis_init
                0x8083682c       0x30 drivers/usb/gadget/libusb_gadget.o
                0x8083682c                rndis_init
 .text.rndis_exit
                0x8083685c        0x4 drivers/usb/gadget/libusb_gadget.o
                0x8083685c                rndis_exit
 .text.fifo_setup
                0x80836860      0x15c drivers/usb/musb-new/libusb_musb-new.o
 .text.musb_write_fifo
                0x808369bc       0xac drivers/usb/musb-new/libusb_musb-new.o
                0x808369bc                musb_write_fifo
 .text.musb_read_fifo
                0x80836a68       0xac drivers/usb/musb-new/libusb_musb-new.o
                0x80836a68                musb_read_fifo
 .text.musb_load_testpacket
                0x80836b14       0x34 drivers/usb/musb-new/libusb_musb-new.o
                0x80836b14                musb_load_testpacket
 .text.musb_start
                0x80836b48       0xa0 drivers/usb/musb-new/libusb_musb-new.o
                0x80836b48                musb_start
 .text.musb_stop
                0x80836be8       0x5c drivers/usb/musb-new/libusb_musb-new.o
                0x80836be8                musb_stop
 .text.musb_interrupt
                0x80836c44      0x13c drivers/usb/musb-new/libusb_musb-new.o
                0x80836c44                musb_interrupt
 .text.musb_init_controller
                0x80836d80      0x5fc drivers/usb/musb-new/libusb_musb-new.o
                0x80836d80                musb_init_controller
 .text.dsps_musb_enable
                0x8083737c       0x24 drivers/usb/musb-new/libusb_musb-new.o
 .text.dsps_musb_disable
                0x808373a0        0x4 drivers/usb/musb-new/libusb_musb-new.o
 .text.dsps_musb_init
                0x808373a4       0x70 drivers/usb/musb-new/libusb_musb-new.o
 .text.dsps_musb_exit
                0x80837414       0x24 drivers/usb/musb-new/libusb_musb-new.o
 .text.dsps_interrupt
                0x80837438       0x98 drivers/usb/musb-new/libusb_musb-new.o
 .text.musb_gadget_enable
                0x808374d0      0x200 drivers/usb/musb-new/libusb_musb-new.o
 .text.musb_gadget_fifo_status
                0x808376d0       0x44 drivers/usb/musb-new/libusb_musb-new.o
 .text.musb_gadget_fifo_flush
                0x80837714       0x78 drivers/usb/musb-new/libusb_musb-new.o
 .text.musb_gadget_get_frame
                0x8083778c        0xc drivers/usb/musb-new/libusb_musb-new.o
 .text.musb_gadget_wakeup
                0x80837798        0x8 drivers/usb/musb-new/libusb_musb-new.o
 .text.musb_gadget_set_self_powered
                0x808377a0       0x1c drivers/usb/musb-new/libusb_musb-new.o
 .text.musb_gadget_vbus_draw
                0x808377bc        0x8 drivers/usb/musb-new/libusb_musb-new.o
 .text.txstate  0x808377c4       0xa4 drivers/usb/musb-new/libusb_musb-new.o
 .text.musb_alloc_request
                0x80837868       0x30 drivers/usb/musb-new/libusb_musb-new.o
                0x80837868                musb_alloc_request
 .text.musb_free_request
                0x80837898        0x8 drivers/usb/musb-new/libusb_musb-new.o
                0x80837898                musb_free_request
 .text.init_peripheral_ep
                0x808378a0      0x120 drivers/usb/musb-new/libusb_musb-new.o
 .text.musb_gadget_pullup
                0x808379c0       0x44 drivers/usb/musb-new/libusb_musb-new.o
 .text.musb_g_giveback
                0x80837a04       0x50 drivers/usb/musb-new/libusb_musb-new.o
                0x80837a04                musb_g_giveback
 .text.rxstate  0x80837a54       0xe0 drivers/usb/musb-new/libusb_musb-new.o
 .text.musb_gadget_dequeue
                0x80837b34       0x80 drivers/usb/musb-new/libusb_musb-new.o
 .text.musb_gadget_disable
                0x80837bb4       0x98 drivers/usb/musb-new/libusb_musb-new.o
 .text.musb_g_tx
                0x80837c4c      0x150 drivers/usb/musb-new/libusb_musb-new.o
                0x80837c4c                musb_g_tx
 .text.musb_g_rx
                0x80837d9c       0x8c drivers/usb/musb-new/libusb_musb-new.o
                0x80837d9c                musb_g_rx
 .text.musb_ep_restart
                0x80837e28       0x20 drivers/usb/musb-new/libusb_musb-new.o
                0x80837e28                musb_ep_restart
 .text.musb_gadget_set_halt
                0x80837e48      0x124 drivers/usb/musb-new/libusb_musb-new.o
 .text.musb_gadget_queue
                0x80837f6c       0xc8 drivers/usb/musb-new/libusb_musb-new.o
 .text.musb_gadget_setup
                0x80838034       0xdc drivers/usb/musb-new/libusb_musb-new.o
                0x80838034                musb_gadget_setup
 .text.musb_gadget_start
                0x80838110       0x34 drivers/usb/musb-new/libusb_musb-new.o
                0x80838110                musb_gadget_start
 .text.musb_g_ep0_enable
                0x80838144        0x8 drivers/usb/musb-new/libusb_musb-new.o
 .text.musb_g_ep0_disable
                0x8083814c        0x8 drivers/usb/musb-new/libusb_musb-new.o
 .text.musb_g_ep0_dequeue
                0x80838154        0x8 drivers/usb/musb-new/libusb_musb-new.o
 .text.musb_g_ep0_halt
                0x8083815c       0xac drivers/usb/musb-new/libusb_musb-new.o
 .text.ep0_txstate
                0x80838208       0xd0 drivers/usb/musb-new/libusb_musb-new.o
 .text.musb_g_ep0_queue
                0x808382d8      0x124 drivers/usb/musb-new/libusb_musb-new.o
 .text.musb_g_ep0_irq
                0x808383fc      0x8a0 drivers/usb/musb-new/libusb_musb-new.o
                0x808383fc                musb_g_ep0_irq
 .text.musb_h_ep0_flush_fifo
                0x80838c9c       0x5c drivers/usb/musb-new/libusb_musb-new.o
 .text.musb_h_tx_flush_fifo
                0x80838cf8       0x60 drivers/usb/musb-new/libusb_musb-new.o
 .text.musb_start_urb
                0x80838d58      0x588 drivers/usb/musb-new/libusb_musb-new.o
 .text.musb_advance_schedule
                0x808392e0      0x204 drivers/usb/musb-new/libusb_musb-new.o
 .text.musb_h_ep0_irq
                0x808394e4      0x284 drivers/usb/musb-new/libusb_musb-new.o
                0x808394e4                musb_h_ep0_irq
 .text.musb_host_tx
                0x80839768      0x1e0 drivers/usb/musb-new/libusb_musb-new.o
                0x80839768                musb_host_tx
 .text.musb_host_rx
                0x80839948      0x38c drivers/usb/musb-new/libusb_musb-new.o
                0x80839948                musb_host_rx
 .text.musb_urb_enqueue
                0x80839cd4      0x4b0 drivers/usb/musb-new/libusb_musb-new.o
                0x80839cd4                musb_urb_enqueue
 .text.musb_host_complete_urb
                0x8083a184       0x1c drivers/usb/musb-new/libusb_musb-new.o
 .text.construct_urb
                0x8083a1a0       0xd4 drivers/usb/musb-new/libusb_musb-new.o
 .text.submit_urb.constprop.0
                0x8083a274       0x84 drivers/usb/musb-new/libusb_musb-new.o
 .text.submit_control_msg
                0x8083a2f8       0x54 drivers/usb/musb-new/libusb_musb-new.o
                0x8083a2f8                submit_control_msg
 .text.submit_bulk_msg
                0x8083a34c       0x38 drivers/usb/musb-new/libusb_musb-new.o
                0x8083a34c                submit_bulk_msg
 .text.submit_int_msg
                0x8083a384       0x3c drivers/usb/musb-new/libusb_musb-new.o
                0x8083a384                submit_int_msg
 .text.usb_lowlevel_init
                0x8083a3c0       0xd4 drivers/usb/musb-new/libusb_musb-new.o
                0x8083a3c0                usb_lowlevel_init
 .text.usb_lowlevel_stop
                0x8083a494       0x38 drivers/usb/musb-new/libusb_musb-new.o
                0x8083a494                usb_lowlevel_stop
 .text.usb_gadget_handle_interrupts
                0x8083a4cc       0x30 drivers/usb/musb-new/libusb_musb-new.o
                0x8083a4cc                usb_gadget_handle_interrupts
 .text.usb_gadget_register_driver
                0x8083a4fc       0xc8 drivers/usb/musb-new/libusb_musb-new.o
                0x8083a4fc                usb_gadget_register_driver
 .text.usb_gadget_unregister_driver
                0x8083a5c4        0x8 drivers/usb/musb-new/libusb_musb-new.o
                0x8083a5c4                usb_gadget_unregister_driver
 .text.musb_register
                0x8083a5cc       0x44 drivers/usb/musb-new/libusb_musb-new.o
                0x8083a5cc                musb_register
 .text.get_fs   0x8083a610        0xc fs/ext4/libext4fs.o
                0x8083a610                get_fs
 .text.ext4fs_free_node
                0x8083a61c       0x20 fs/ext4/libext4fs.o
                0x8083a61c                ext4fs_free_node
 .text.ext4fs_read_file
                0x8083a63c      0x25c fs/ext4/libext4fs.o
                0x8083a63c                ext4fs_read_file
 .text.ext4fs_ls
                0x8083a898       0x78 fs/ext4/libext4fs.o
                0x8083a898                ext4fs_ls
 .text.ext4fs_read
                0x8083a910       0x40 fs/ext4/libext4fs.o
                0x8083a910                ext4fs_read
 .text.ext4fs_probe
                0x8083a950       0x30 fs/ext4/libext4fs.o
                0x8083a950                ext4fs_probe
 .text.ext4_read_file
                0x8083a980       0x64 fs/ext4/libext4fs.o
                0x8083a980                ext4_read_file
 .text.ext4fs_read_inode
                0x8083a9e4      0x134 fs/ext4/libext4fs.o
                0x8083a9e4                ext4fs_read_inode
 .text.read_allocated_block
                0x8083ab18      0x940 fs/ext4/libext4fs.o
                0x8083ab18                read_allocated_block
 .text.ext4fs_close
                0x8083b458      0x110 fs/ext4/libext4fs.o
                0x8083b458                ext4fs_close
 .text.ext4fs_iterate_dir
                0x8083b568      0x278 fs/ext4/libext4fs.o
                0x8083b568                ext4fs_iterate_dir
 .text.ext4fs_find_file1
                0x8083b7e0      0x28c fs/ext4/libext4fs.o
 .text.ext4fs_find_file
                0x8083ba6c       0x78 fs/ext4/libext4fs.o
                0x8083ba6c                ext4fs_find_file
 .text.ext4fs_open
                0x8083bae4       0x9c fs/ext4/libext4fs.o
                0x8083bae4                ext4fs_open
 .text.ext4fs_mount
                0x8083bb80       0xc4 fs/ext4/libext4fs.o
                0x8083bb80                ext4fs_mount
 .text.ext4fs_set_blk_dev
                0x8083bc44       0x6c fs/ext4/libext4fs.o
                0x8083bc44                ext4fs_set_blk_dev
 .text.ext4fs_devread
                0x8083bcb0      0x258 fs/ext4/libext4fs.o
                0x8083bcb0                ext4fs_devread
 .text.ext4_read_superblock
                0x8083bf08       0x3c fs/ext4/libext4fs.o
                0x8083bf08                ext4_read_superblock
 .text.downcase
                0x8083bf44       0x30 fs/fat/libfat.o
 .text.disk_read
                0x8083bf74       0x64 fs/fat/libfat.o
 .text.dirdelim
                0x8083bfd8       0x30 fs/fat/libfat.o
 .text.get_fatent
                0x8083c008      0x150 fs/fat/libfat.o
 .text.mkcksum  0x8083c158       0x50 fs/fat/libfat.o
 .text.check_overflow
                0x8083c1a8       0x74 fs/fat/libfat.o
 .text.disk_write
                0x8083c21c       0x84 fs/fat/libfat.o
 .text.flush_fat_buffer
                0x8083c2a0       0x80 fs/fat/libfat.o
 .text.get_fatent_value
                0x8083c320      0x178 fs/fat/libfat.o
 .text.set_fatent_value
                0x8083c498      0x114 fs/fat/libfat.o
 .text.get_cluster
                0x8083c5ac      0x174 fs/fat/libfat.o
 .text.get_name
                0x8083c720       0xac fs/fat/libfat.o
 .text.set_cluster
                0x8083c7cc       0xc4 fs/fat/libfat.o
 .text.set_contents
                0x8083c890      0x1e0 fs/fat/libfat.o
 .text.read_bootsectandvi
                0x8083ca70      0x128 fs/fat/libfat.o
 .text.set_name
                0x8083cb98      0x140 fs/fat/libfat.o
 .text.slot2str
                0x8083ccd8       0xbc fs/fat/libfat.o
 .text.get_vfatname
                0x8083cd94      0x1ac fs/fat/libfat.o
 .text.flush_dir_table.constprop.7
                0x8083cf40       0xe0 fs/fat/libfat.o
 .text.do_fat_write
                0x8083d020      0x910 fs/fat/libfat.o
 .text.fat_set_blk_dev
                0x8083d930       0xcc fs/fat/libfat.o
                0x8083d930                fat_set_blk_dev
 .text.do_fat_read_at
                0x8083d9fc      0xac0 fs/fat/libfat.o
                0x8083d9fc                do_fat_read_at
 .text.do_fat_read
                0x8083e4bc       0x28 fs/fat/libfat.o
                0x8083e4bc                do_fat_read
 .text.file_fat_detectfs
                0x8083e4e4      0x148 fs/fat/libfat.o
                0x8083e4e4                file_fat_detectfs
 .text.file_fat_ls
                0x8083e62c       0x10 fs/fat/libfat.o
                0x8083e62c                file_fat_ls
 .text.file_fat_read_at
                0x8083e63c       0x48 fs/fat/libfat.o
                0x8083e63c                file_fat_read_at
 .text.fat_read_file
                0x8083e684       0x3c fs/fat/libfat.o
                0x8083e684                fat_read_file
 .text.fat_close
                0x8083e6c0        0x4 fs/fat/libfat.o
                0x8083e6c0                fat_close
 .text.file_fat_write
                0x8083e6c4       0x34 fs/fat/libfat.o
                0x8083e6c4                file_fat_write
 .text.fs_probe_unsupported
                0x8083e6f8       0x18 fs/libfs.o
 .text.fs_ls_unsupported
                0x8083e710        0x8 fs/libfs.o
 .text.fs_read_unsupported
                0x8083e718        0x8 fs/libfs.o
 .text.fs_write_unsupported
                0x8083e720        0x8 fs/libfs.o
 .text.fs_close_unsupported
                0x8083e728        0x4 fs/libfs.o
 .text.fs_get_info
                0x8083e72c       0x34 fs/libfs.o
 .text.fs_close
                0x8083e760       0x28 fs/libfs.o
 .text.fs_set_blk_dev
                0x8083e788       0xa0 fs/libfs.o
                0x8083e788                fs_set_blk_dev
 .text.fs_ls    0x8083e828       0x3c fs/libfs.o
                0x8083e828                fs_ls
 .text.fs_read  0x8083e864       0x84 fs/libfs.o
                0x8083e864                fs_read
 .text.do_load  0x8083e8e8      0x1c0 fs/libfs.o
                0x8083e8e8                do_load
 .text.do_ls    0x8083eaa8       0x68 fs/libfs.o
                0x8083eaa8                do_ls
 .text.gzip_decompress
                0x8083eb10       0x2c fs/ubifs/libubifs.o
 .text.ubifs_findfile
                0x8083eb3c      0x350 fs/ubifs/libubifs.o
 .text.ubifs_decompress
                0x8083ee8c       0xc8 fs/ubifs/libubifs.o
                0x8083ee8c                ubifs_decompress
 .text.read_block
                0x8083ef54      0x104 fs/ubifs/libubifs.o
 .text.ubifs_compressors_init
                0x8083f058       0x40 fs/ubifs/libubifs.o
                0x8083f058                ubifs_compressors_init
 .text.ubifs_ls
                0x8083f098      0x47c fs/ubifs/libubifs.o
                0x8083f098                ubifs_ls
 .text.ubifs_load
                0x8083f514      0x314 fs/ubifs/libubifs.o
                0x8083f514                ubifs_load
 .text.ubifs_check_node
                0x8083f828      0x190 fs/ubifs/libubifs.o
                0x8083f828                ubifs_check_node
 .text.ubifs_pad
                0x8083f9b8       0xc4 fs/ubifs/libubifs.o
                0x8083f9b8                ubifs_pad
 .text.ubifs_read_node
                0x8083fa7c      0x138 fs/ubifs/libubifs.o
                0x8083fa7c                ubifs_read_node
 .text.sb_set   0x8083fbb4       0x10 fs/ubifs/libubifs.o
 .text.sb_test  0x8083fbc4       0x18 fs/ubifs/libubifs.o
 .text.free_orphans
                0x8083fbdc       0x8c fs/ubifs/libubifs.o
 .text.sget     0x8083fc68       0x94 fs/ubifs/libubifs.o
                0x8083fc68                sget
 .text.iget_locked
                0x8083fcfc       0x4c fs/ubifs/libubifs.o
                0x8083fcfc                iget_locked
 .text.ubifs_iput
                0x8083fd48       0x2c fs/ubifs/libubifs.o
                0x8083fd48                ubifs_iput
 .text.iput     0x8083fd74       0x6c fs/ubifs/libubifs.o
                0x8083fd74                iput
 .text.ubifs_iget
                0x8083fde0      0x41c fs/ubifs/libubifs.o
                0x8083fde0                ubifs_iget
 .text.ubifs_umount
                0x808401fc       0x8c fs/ubifs/libubifs.o
                0x808401fc                ubifs_umount
 .text.ubifs_get_sb
                0x80840288      0xc4c fs/ubifs/libubifs.o
 .text.ubifs_init
                0x80840ed4        0x4 fs/ubifs/libubifs.o
                0x80840ed4                ubifs_init
 .text.ubifs_mount
                0x80840ed8       0xac fs/ubifs/libubifs.o
                0x80840ed8                ubifs_mount
 .text.key_r5_hash
                0x80840f84       0x40 fs/ubifs/libubifs.o
 .text.key_test_hash
                0x80840fc4       0x40 fs/ubifs/libubifs.o
 .text.ubifs_read_sb_node
                0x80841004       0x68 fs/ubifs/libubifs.o
                0x80841004                ubifs_read_sb_node
 .text.ubifs_read_superblock
                0x8084106c      0x52c fs/ubifs/libubifs.o
                0x8084106c                ubifs_read_superblock
 .text.ubifs_read_master
                0x80841598      0x8b0 fs/ubifs/libubifs.o
                0x80841598                ubifs_read_master
 .text.generic_fls
                0x80841e48       0x54 fs/ubifs/libubifs.o
 .text.calc_nnode_num_from_parent.isra.1
                0x80841e9c       0x30 fs/ubifs/libubifs.o
 .text.calc_pnode_num_from_parent.isra.2
                0x80841ecc       0x34 fs/ubifs/libubifs.o
 .text.ubifs_calc_lpt_geom
                0x80841f00      0x33c fs/ubifs/libubifs.o
                0x80841f00                ubifs_calc_lpt_geom
 .text.ubifs_unpack_bits
                0x8084223c      0x140 fs/ubifs/libubifs.o
                0x8084223c                ubifs_unpack_bits
 .text.check_lpt_type
                0x8084237c       0x48 fs/ubifs/libubifs.o
 .text.check_lpt_crc
                0x808423c4       0x78 fs/ubifs/libubifs.o
 .text.ubifs_add_lpt_dirt
                0x8084243c       0x30 fs/ubifs/libubifs.o
                0x8084243c                ubifs_add_lpt_dirt
 .text.ubifs_add_nnode_dirt
                0x8084246c       0x60 fs/ubifs/libubifs.o
                0x8084246c                ubifs_add_nnode_dirt
 .text.dirty_cow_nnode
                0x808424cc       0xfc fs/ubifs/libubifs.o
 .text.ubifs_unpack_nnode
                0x808425c8       0xbc fs/ubifs/libubifs.o
                0x808425c8                ubifs_unpack_nnode
 .text.ubifs_read_nnode
                0x80842684      0x228 fs/ubifs/libubifs.o
                0x80842684                ubifs_read_nnode
 .text.ubifs_get_nnode
                0x808428ac       0x30 fs/ubifs/libubifs.o
                0x808428ac                ubifs_get_nnode
 .text.ubifs_get_pnode
                0x808428dc      0x390 fs/ubifs/libubifs.o
                0x808428dc                ubifs_get_pnode
 .text.ubifs_lpt_lookup_dirty
                0x80842c6c      0x208 fs/ubifs/libubifs.o
                0x80842c6c                ubifs_lpt_lookup_dirty
 .text.ubifs_lpt_init
                0x80842e74      0x1dc fs/ubifs/libubifs.o
                0x80842e74                ubifs_lpt_init
 .text.ubifs_lpt_free
                0x80843050      0x1d0 fs/ubifs/libubifs.o
                0x80843050                ubifs_lpt_free
 .text.ubifs_scan_a_node
                0x80843220      0x120 fs/ubifs/libubifs.o
                0x80843220                ubifs_scan_a_node
 .text.ubifs_start_scan
                0x80843340       0xd0 fs/ubifs/libubifs.o
                0x80843340                ubifs_start_scan
 .text.ubifs_end_scan
                0x80843410       0x1c fs/ubifs/libubifs.o
                0x80843410                ubifs_end_scan
 .text.ubifs_add_snod
                0x8084342c       0x94 fs/ubifs/libubifs.o
                0x8084342c                ubifs_add_snod
 .text.ubifs_scanned_corruption
                0x808434c0       0x2c fs/ubifs/libubifs.o
                0x808434c0                ubifs_scanned_corruption
 .text.ubifs_scan_destroy
                0x808434ec       0x44 fs/ubifs/libubifs.o
                0x808434ec                ubifs_scan_destroy
 .text.ubifs_scan
                0x80843530      0x1a4 fs/ubifs/libubifs.o
                0x80843530                ubifs_scan
 .text.get_heap_comp_val
                0x808436d4       0x2c fs/ubifs/libubifs.o
 .text.move_up_lpt_heap.isra.2
                0x80843700       0x84 fs/ubifs/libubifs.o
 .text.adjust_lpt_heap.isra.3
                0x80843784      0x1a0 fs/ubifs/libubifs.o
 .text.remove_from_lpt_heap.isra.4
                0x80843924       0x60 fs/ubifs/libubifs.o
 .text.ubifs_add_to_cat
                0x80843984      0x198 fs/ubifs/libubifs.o
                0x80843984                ubifs_add_to_cat
 .text.ubifs_replace_cat
                0x80843b1c       0x60 fs/ubifs/libubifs.o
                0x80843b1c                ubifs_replace_cat
 .text.ubifs_categorize_lprops
                0x80843b7c       0x98 fs/ubifs/libubifs.o
                0x80843b7c                ubifs_categorize_lprops
 .text.ubifs_change_lp
                0x80843c14      0x344 fs/ubifs/libubifs.o
                0x80843c14                ubifs_change_lp
 .text.ubifs_update_one_lp
                0x80843f58       0x64 fs/ubifs/libubifs.o
                0x80843f58                ubifs_update_one_lp
 .text.insert_zbranch
                0x80843fbc       0xdc fs/ubifs/libubifs.o
 .text.insert_old_idx
                0x80844098       0xc0 fs/ubifs/libubifs.o
 .text.get_znode
                0x80844158       0x40 fs/ubifs/libubifs.o
 .text.tnc_prev
                0x80844198       0x98 fs/ubifs/libubifs.o
 .text.tnc_next
                0x80844230       0x9c fs/ubifs/libubifs.o
 .text.fallible_read_node
                0x808442cc      0x128 fs/ubifs/libubifs.o
 .text.correct_parent_keys.isra.12
                0x808443f4       0x6c fs/ubifs/libubifs.o
 .text.key_in_range.isra.13
                0x80844460       0x5c fs/ubifs/libubifs.o
 .text.lnc_free.isra.14
                0x808444bc       0x28 fs/ubifs/libubifs.o
 .text.tnc_read_node_nm
                0x808444e4       0x7c fs/ubifs/libubifs.o
 .text.matches_name
                0x80844560       0xcc fs/ubifs/libubifs.o
 .text.resolve_collision
                0x8084462c      0x1d0 fs/ubifs/libubifs.o
 .text.tnc_insert
                0x808447fc      0x42c fs/ubifs/libubifs.o
 .text.fallible_matches_name
                0x80844c28       0xd8 fs/ubifs/libubifs.o
 .text.fallible_resolve_collision
                0x80844d00      0x278 fs/ubifs/libubifs.o
 .text.dirty_cow_znode
                0x80844f78      0x194 fs/ubifs/libubifs.o
 .text.dirty_cow_bottom_up
                0x8084510c      0x108 fs/ubifs/libubifs.o
 .text.lookup_level0_dirty
                0x80845214      0x1c0 fs/ubifs/libubifs.o
 .text.insert_old_idx_znode
                0x808453d4       0x50 fs/ubifs/libubifs.o
                0x808453d4                insert_old_idx_znode
 .text.tnc_delete
                0x80845424      0x210 fs/ubifs/libubifs.o
 .text.ubifs_lookup_level0
                0x80845634      0x164 fs/ubifs/libubifs.o
                0x80845634                ubifs_lookup_level0
 .text.ubifs_tnc_locate
                0x80845798      0x100 fs/ubifs/libubifs.o
                0x80845798                ubifs_tnc_locate
 .text.ubifs_tnc_add
                0x80845898       0xc0 fs/ubifs/libubifs.o
                0x80845898                ubifs_tnc_add
 .text.ubifs_tnc_remove
                0x80845958       0x40 fs/ubifs/libubifs.o
                0x80845958                ubifs_tnc_remove
 .text.ubifs_tnc_remove_nm
                0x80845998       0xc8 fs/ubifs/libubifs.o
                0x80845998                ubifs_tnc_remove_nm
 .text.ubifs_tnc_add_nm
                0x80845a60      0x1ac fs/ubifs/libubifs.o
                0x80845a60                ubifs_tnc_add_nm
 .text.ubifs_tnc_remove_range
                0x80845c0c      0x1e8 fs/ubifs/libubifs.o
                0x80845c0c                ubifs_tnc_remove_range
 .text.ubifs_tnc_next_ent
                0x80845df4      0x110 fs/ubifs/libubifs.o
                0x80845df4                ubifs_tnc_next_ent
 .text.ubifs_tnc_remove_ino
                0x80845f04      0x110 fs/ubifs/libubifs.o
                0x80845f04                ubifs_tnc_remove_ino
 .text.ubifs_search_zbranch
                0x80846014       0x80 fs/ubifs/libubifs.o
                0x80846014                ubifs_search_zbranch
 .text.ubifs_load_znode
                0x80846094      0x2a8 fs/ubifs/libubifs.o
                0x80846094                ubifs_load_znode
 .text.ubifs_tnc_read_node
                0x8084633c       0x88 fs/ubifs/libubifs.o
                0x8084633c                ubifs_tnc_read_node
 .text.crc16    0x808463c4       0x34 fs/ubifs/libubifs.o
                0x808463c4                crc16
 .text.ubifs_calc_min_idx_lebs
                0x808463f8       0x9c fs/ubifs/libubifs.o
                0x808463f8                ubifs_calc_min_idx_lebs
 .text.ubifs_reported_space
                0x80846494       0x74 fs/ubifs/libubifs.o
                0x80846494                ubifs_reported_space
 .text.ubifs_search_bud
                0x80846508       0x30 fs/ubifs/libubifs.o
                0x80846508                ubifs_search_bud
 .text.ubifs_add_bud
                0x80846538       0xac fs/ubifs/libubifs.o
                0x80846538                ubifs_add_bud
 .text.ubifs_clear_orphans
                0x808465e4       0x88 fs/ubifs/libubifs.o
                0x808465e4                ubifs_clear_orphans
 .text.ubifs_mount_orphans
                0x8084666c      0x360 fs/ubifs/libubifs.o
                0x8084666c                ubifs_mount_orphans
 .text.is_empty
                0x808469cc       0x2c fs/ubifs/libubifs.o
 .text.get_master_node
                0x808469f8      0x1e0 fs/ubifs/libubifs.o
 .text.add_ino  0x80846bd8       0x98 fs/ubifs/libubifs.o
 .text.is_last_write
                0x80846c70       0x98 fs/ubifs/libubifs.o
 .text.find_ino.isra.4
                0x80846d08       0x28 fs/ubifs/libubifs.o
 .text.clean_buf.isra.6
                0x80846d30       0x94 fs/ubifs/libubifs.o
 .text.ubifs_recover_master_node
                0x80846dc4      0x1d8 fs/ubifs/libubifs.o
                0x80846dc4                ubifs_recover_master_node
 .text.ubifs_recover_leb
                0x80846f9c      0x468 fs/ubifs/libubifs.o
                0x80846f9c                ubifs_recover_leb
 .text.ubifs_recover_log_leb
                0x80847404      0x1e0 fs/ubifs/libubifs.o
                0x80847404                ubifs_recover_log_leb
 .text.ubifs_recover_size_accum
                0x808475e4      0x118 fs/ubifs/libubifs.o
                0x808475e4                ubifs_recover_size_accum
 .text.ubifs_recover_size
                0x808476fc      0x148 fs/ubifs/libubifs.o
                0x808476fc                ubifs_recover_size
 .text.insert_node
                0x80847844      0x130 fs/ubifs/libubifs.o
 .text.ubifs_validate_entry
                0x80847974       0xe8 fs/ubifs/libubifs.o
                0x80847974                ubifs_validate_entry
 .text.ubifs_replay_journal
                0x80847a5c      0xcec fs/ubifs/libubifs.o
                0x80847a5c                ubifs_replay_journal
 .text.fdt_check_header
                0x80848748       0x74 lib/libfdt/libfdt.o
                0x80848748                fdt_check_header
 .text.fdt_offset_ptr
                0x808487bc       0x4c lib/libfdt/libfdt.o
                0x808487bc                fdt_offset_ptr
 .text.fdt_next_tag
                0x80848808       0xfc lib/libfdt/libfdt.o
                0x80848808                fdt_next_tag
 .text._fdt_check_node_offset
                0x80848904       0x3c lib/libfdt/libfdt.o
                0x80848904                _fdt_check_node_offset
 .text._fdt_check_prop_offset
                0x80848940       0x3c lib/libfdt/libfdt.o
                0x80848940                _fdt_check_prop_offset
 .text.fdt_next_node
                0x8084897c       0xb8 lib/libfdt/libfdt.o
                0x8084897c                fdt_next_node
 .text._fdt_find_string
                0x80848a34       0x5c lib/libfdt/libfdt.o
                0x80848a34                _fdt_find_string
 .text.fdt_move
                0x80848a90       0x48 lib/libfdt/libfdt.o
                0x80848a90                fdt_move
 .text._nextprop
                0x80848ad8       0x5c lib/libfdt/libfdt.o
 .text.fdt_string
                0x80848b34       0x14 lib/libfdt/libfdt.o
                0x80848b34                fdt_string
 .text.fdt_get_mem_rsv
                0x80848b48       0x60 lib/libfdt/libfdt.o
                0x80848b48                fdt_get_mem_rsv
 .text.fdt_num_mem_rsv
                0x80848ba8       0x3c lib/libfdt/libfdt.o
                0x80848ba8                fdt_num_mem_rsv
 .text.fdt_subnode_offset_namelen
                0x80848be4       0xd0 lib/libfdt/libfdt.o
                0x80848be4                fdt_subnode_offset_namelen
 .text.fdt_get_name
                0x80848cb4       0x74 lib/libfdt/libfdt.o
                0x80848cb4                fdt_get_name
 .text.fdt_first_property_offset
                0x80848d28       0x20 lib/libfdt/libfdt.o
                0x80848d28                fdt_first_property_offset
 .text.fdt_next_property_offset
                0x80848d48       0x20 lib/libfdt/libfdt.o
                0x80848d48                fdt_next_property_offset
 .text.fdt_get_property_by_offset
                0x80848d68       0x54 lib/libfdt/libfdt.o
                0x80848d68                fdt_get_property_by_offset
 .text.fdt_get_property_namelen
                0x80848dbc       0xa0 lib/libfdt/libfdt.o
                0x80848dbc                fdt_get_property_namelen
 .text.fdt_get_property
                0x80848e5c       0x3c lib/libfdt/libfdt.o
                0x80848e5c                fdt_get_property
 .text.fdt_getprop_namelen
                0x80848e98       0x20 lib/libfdt/libfdt.o
                0x80848e98                fdt_getprop_namelen
 .text.fdt_getprop
                0x80848eb8       0x3c lib/libfdt/libfdt.o
                0x80848eb8                fdt_getprop
 .text.fdt_get_alias_namelen
                0x80848ef4       0x48 lib/libfdt/libfdt.o
                0x80848ef4                fdt_get_alias_namelen
 .text.fdt_path_offset
                0x80848f3c       0xec lib/libfdt/libfdt.o
                0x80848f3c                fdt_path_offset
 .text.fdt_supernode_atdepth_offset
                0x80849028       0xb8 lib/libfdt/libfdt.o
                0x80849028                fdt_supernode_atdepth_offset
 .text.fdt_node_depth
                0x808490e0       0x28 lib/libfdt/libfdt.o
                0x808490e0                fdt_node_depth
 .text._fdt_blocks_misordered
                0x80849108       0x68 lib/libfdt/libfdt.o
 .text._fdt_splice
                0x80849170       0x78 lib/libfdt/libfdt.o
 .text._fdt_splice_mem_rsv
                0x808491e8       0x58 lib/libfdt/libfdt.o
 .text._fdt_splice_struct
                0x80849240       0x4c lib/libfdt/libfdt.o
 .text._fdt_packblocks
                0x8084928c       0xa8 lib/libfdt/libfdt.o
 .text._fdt_add_property
                0x80849334      0x120 lib/libfdt/libfdt.o
 .text._fdt_rw_check_header
                0x80849454       0x60 lib/libfdt/libfdt.o
 .text.fdt_add_mem_rsv
                0x808494b4       0x8c lib/libfdt/libfdt.o
                0x808494b4                fdt_add_mem_rsv
 .text.fdt_del_mem_rsv
                0x80849540       0x5c lib/libfdt/libfdt.o
                0x80849540                fdt_del_mem_rsv
 .text.fdt_setprop
                0x8084959c       0xcc lib/libfdt/libfdt.o
                0x8084959c                fdt_setprop
 .text.fdt_delprop
                0x80849668       0x64 lib/libfdt/libfdt.o
                0x80849668                fdt_delprop
 .text.fdt_add_subnode_namelen
                0x808496cc       0xf0 lib/libfdt/libfdt.o
                0x808496cc                fdt_add_subnode_namelen
 .text.fdt_add_subnode
                0x808497bc       0x30 lib/libfdt/libfdt.o
                0x808497bc                fdt_add_subnode
 .text.fdt_del_node
                0x808497ec       0x60 lib/libfdt/libfdt.o
                0x808497ec                fdt_del_node
 .text.fdt_open_into
                0x8084984c      0x19c lib/libfdt/libfdt.o
                0x8084984c                fdt_open_into
 .text.fdt_strerror
                0x808499e8       0x58 lib/libfdt/libfdt.o
                0x808499e8                fdt_strerror
 .text._fdt_node_end_offset
                0x80849a40       0x44 lib/libfdt/libfdt.o
                0x80849a40                _fdt_node_end_offset
 .text.cyg_crc16
                0x80849a84       0x44 lib/libgeneric.o
                0x80849a84                cyg_crc16
 .text.crc32_no_comp
                0x80849ac8       0xd8 lib/libgeneric.o
                0x80849ac8                crc32_no_comp
 .text.crc32    0x80849ba0       0x14 lib/libgeneric.o
                0x80849ba0                crc32
 .text.crc32_wd
                0x80849bb4        0x4 lib/libgeneric.o
                0x80849bb4                crc32_wd
 .text.print_size
                0x80849bb8      0x130 lib/libgeneric.o
                0x80849bb8                print_size
 .text.print_buffer
                0x80849ce8      0x1b4 lib/libgeneric.o
                0x80849ce8                print_buffer
 .text.__div64_32
                0x80849e9c       0xd0 lib/libgeneric.o
                0x80849e9c                __div64_32
 .text.gzalloc  0x80849f6c       0x10 lib/libgeneric.o
                0x80849f6c                gzalloc
 .text.gzfree   0x80849f7c        0x8 lib/libgeneric.o
                0x80849f7c                gzfree
 .text.zunzip   0x80849f84      0x124 lib/libgeneric.o
                0x80849f84                zunzip
 .text.gunzip   0x8084a0a8       0xb8 lib/libgeneric.o
                0x8084a0a8                gunzip
 .text.hang     0x8084a160       0x1c lib/libgeneric.o
                0x8084a160                hang
 .text.cmpkey   0x8084a17c       0x14 lib/libgeneric.o
 .text._hdelete.isra.1
                0x8084a190       0x50 lib/libgeneric.o
 .text.drop_var_from_set.part.2
                0x8084a1e0       0x50 lib/libgeneric.o
 .text.match_string.isra.3
                0x8084a230       0x60 lib/libgeneric.o
 .text.hcreate_r
                0x8084a290       0xb0 lib/libgeneric.o
                0x8084a290                hcreate_r
 .text.hdestroy_r
                0x8084a340       0x78 lib/libgeneric.o
                0x8084a340                hdestroy_r
 .text.hmatch_r
                0x8084a3b8       0xa0 lib/libgeneric.o
                0x8084a3b8                hmatch_r
 .text.hsearch_r
                0x8084a458      0x4dc lib/libgeneric.o
                0x8084a458                hsearch_r
 .text.hdelete_r
                0x8084a934       0xd8 lib/libgeneric.o
                0x8084a934                hdelete_r
 .text.hexport_r
                0x8084aa0c      0x310 lib/libgeneric.o
                0x8084aa0c                hexport_r
 .text.himport_r
                0x8084ad1c      0x34c lib/libgeneric.o
                0x8084ad1c                himport_r
 .text.hwalk_r  0x8084b068       0x58 lib/libgeneric.o
                0x8084b068                hwalk_r
 .text.skip_spaces
                0x8084b0c0       0x28 lib/libgeneric.o
                0x8084b0c0                skip_spaces
 .text.strim    0x8084b0e8       0x60 lib/libgeneric.o
                0x8084b0e8                strim
 .text.lmb_add_region
                0x8084b148      0x1a4 lib/libgeneric.o
 .text.lmb_init
                0x8084b2ec       0x28 lib/libgeneric.o
                0x8084b2ec                lmb_init
 .text.lmb_add  0x8084b314        0x4 lib/libgeneric.o
                0x8084b314                lmb_add
 .text.lmb_free
                0x8084b318      0x104 lib/libgeneric.o
                0x8084b318                lmb_free
 .text.lmb_reserve
                0x8084b41c        0x8 lib/libgeneric.o
                0x8084b41c                lmb_reserve
 .text.lmb_overlaps_region
                0x8084b424       0x58 lib/libgeneric.o
                0x8084b424                lmb_overlaps_region
 .text.__lmb_alloc_base
                0x8084b47c      0x108 lib/libgeneric.o
                0x8084b47c                __lmb_alloc_base
 .text.lmb_alloc_base
                0x8084b584       0x34 lib/libgeneric.o
                0x8084b584                lmb_alloc_base
 .text.lmb_alloc
                0x8084b5b8        0x8 lib/libgeneric.o
                0x8084b5b8                lmb_alloc
 .text.__board_lmb_reserve
                0x8084b5c0        0x4 lib/libgeneric.o
                0x8084b5c0                board_lmb_reserve
                0x8084b5c0                __board_lmb_reserve
 .text.string_to_ip
                0x8084b5c4       0x60 lib/libgeneric.o
                0x8084b5c4                string_to_ip
 .text.qsort    0x8084b624       0xdc lib/libgeneric.o
                0x8084b624                qsort
 .text.strcmp_compar
                0x8084b700        0xc lib/libgeneric.o
                0x8084b700                strcmp_compar
 .text.__rb_rotate_left
                0x8084b70c       0x6c lib/libgeneric.o
 .text.__rb_rotate_right
                0x8084b778       0x70 lib/libgeneric.o
 .text.rb_insert_color
                0x8084b7e8      0x13c lib/libgeneric.o
                0x8084b7e8                rb_insert_color
 .text.rb_erase
                0x8084b924      0x370 lib/libgeneric.o
                0x8084b924                rb_erase
 .text.rb_first
                0x8084bc94       0x24 lib/libgeneric.o
                0x8084bc94                rb_first
 .text.rb_last  0x8084bcb8       0x24 lib/libgeneric.o
                0x8084bcb8                rb_last
 .text.rb_next  0x8084bcdc       0x64 lib/libgeneric.o
                0x8084bcdc                rb_next
 .text.strcpy   0x8084bd40       0x18 lib/libgeneric.o
                0x8084bd40                strcpy
 .text.strncpy  0x8084bd58       0x24 lib/libgeneric.o
                0x8084bd58                strncpy
 .text.strcat   0x8084bd7c       0x30 lib/libgeneric.o
                0x8084bd7c                strcat
 .text.strncat  0x8084bdac       0x54 lib/libgeneric.o
                0x8084bdac                strncat
 .text.strcmp   0x8084be00       0x28 lib/libgeneric.o
                0x8084be00                strcmp
 .text.strncmp  0x8084be28       0x3c lib/libgeneric.o
                0x8084be28                strncmp
 .text.strchr   0x8084be64       0x2c lib/libgeneric.o
                0x8084be64                strchr
 .text.strlen   0x8084be90       0x20 lib/libgeneric.o
                0x8084be90                strlen
 .text.strrchr  0x8084beb0       0x3c lib/libgeneric.o
                0x8084beb0                strrchr
 .text.strnlen  0x8084beec       0x2c lib/libgeneric.o
                0x8084beec                strnlen
 .text.strdup   0x8084bf18       0x40 lib/libgeneric.o
                0x8084bf18                strdup
 .text.strpbrk  0x8084bf58       0x3c lib/libgeneric.o
                0x8084bf58                strpbrk
 .text.strsep   0x8084bf94       0x38 lib/libgeneric.o
                0x8084bf94                strsep
 .text.memset   0x8084bfcc       0x5c lib/libgeneric.o
                0x8084bfcc                memset
 .text.memcpy   0x8084c028       0x6c lib/libgeneric.o
                0x8084c028                memcpy
 .text.memmove  0x8084c094       0x48 lib/libgeneric.o
                0x8084c094                memmove
 .text.memcmp   0x8084c0dc       0x30 lib/libgeneric.o
                0x8084c0dc                memcmp
 .text.strstr   0x8084c10c       0x6c lib/libgeneric.o
                0x8084c10c                strstr
 .text.memchr   0x8084c178       0x30 lib/libgeneric.o
                0x8084c178                memchr
 .text.memchr_inv
                0x8084c1a8      0x130 lib/libgeneric.o
                0x8084c1a8                memchr_inv
 .text.udelay   0x8084c2d8       0x30 lib/libgeneric.o
                0x8084c2d8                udelay
 .text.mdelay   0x8084c308       0x24 lib/libgeneric.o
                0x8084c308                mdelay
 .text.put_dec_trunc
                0x8084c32c       0xd4 lib/libgeneric.o
 .text.put_dec  0x8084c400      0x13c lib/libgeneric.o
 .text.string.isra.0
                0x8084c53c       0x94 lib/libgeneric.o
 .text.number.isra.4
                0x8084c5d0      0x250 lib/libgeneric.o
 .text.vsnprintf_internal.isra.6
                0x8084c820      0x5fc lib/libgeneric.o
 .text.simple_strtoul
                0x8084ce1c       0xb8 lib/libgeneric.o
                0x8084ce1c                simple_strtoul
 .text.strict_strtoul
                0x8084ced4       0x78 lib/libgeneric.o
                0x8084ced4                strict_strtoul
 .text.simple_strtol
                0x8084cf4c       0x28 lib/libgeneric.o
                0x8084cf4c                simple_strtol
 .text.simple_strtoull
                0x8084cf74       0xdc lib/libgeneric.o
                0x8084cf74                simple_strtoull
 .text.ustrtoull
                0x8084d050       0x88 lib/libgeneric.o
                0x8084d050                ustrtoull
 .text.vsprintf
                0x8084d0d8        0x4 lib/libgeneric.o
                0x8084d0d8                vsprintf
 .text.sprintf  0x8084d0dc       0x28 lib/libgeneric.o
                0x8084d0dc                sprintf
 .text.panic    0x8084d104       0x44 lib/libgeneric.o
                0x8084d104                panic
 .text.simple_itoa
                0x8084d148       0x54 lib/libgeneric.o
                0x8084d148                simple_itoa
 .text.lzo1x_decompress_safe
                0x8084d19c      0x63c lib/lzo/liblzo.o
                0x8084d19c                lzo1x_decompress_safe
 .text.lzop_decompress
                0x8084d7d8      0x168 lib/lzo/liblzo.o
                0x8084d7d8                lzop_decompress
 .text.zcalloc  0x8084d940        0x8 lib/zlib/libz.o
                0x8084d940                zcalloc
 .text.zcfree   0x8084d948        0x8 lib/zlib/libz.o
                0x8084d948                zcfree
 .text.inflate_fast
                0x8084d950      0x590 lib/zlib/libz.o
                0x8084d950                inflate_fast
 .text.inflate_table
                0x8084dee0      0x548 lib/zlib/libz.o
                0x8084dee0                inflate_table
 .text.inflateReset
                0x8084e428       0x78 lib/zlib/libz.o
                0x8084e428                inflateReset
 .text.inflateInit2_
                0x8084e4a0      0x104 lib/zlib/libz.o
                0x8084e4a0                inflateInit2_
 .text.inflateEnd
                0x8084e5a4       0x68 lib/zlib/libz.o
                0x8084e5a4                inflateEnd
 .text.adler32  0x8084e60c      0x338 lib/zlib/libz.o
                0x8084e60c                adler32
 .text.inflate  0x8084e944     0x14fc lib/zlib/libz.o
                0x8084e944                inflate
 .text.ArpInit  0x8084fe40       0x50 net/libnet.o
                0x8084fe40                ArpInit
 .text.arp_raw_request
                0x8084fe90       0xc0 net/libnet.o
                0x8084fe90                arp_raw_request
 .text.ArpRequest
                0x8084ff50       0x84 net/libnet.o
                0x8084ff50                ArpRequest
 .text.ArpTimeoutCheck
                0x8084ffd4       0x80 net/libnet.o
                0x8084ffd4                ArpTimeoutCheck
 .text.ArpReceive
                0x80850054      0x1fc net/libnet.o
                0x80850054                ArpReceive
 .text.DhcpExtended
                0x80850250      0x158 net/libnet.o
 .text.DhcpOptionsProcess
                0x808503a8      0x21c net/libnet.o
 .text.DhcpHandler
                0x808505c4      0x378 net/libnet.o
 .text.BootpRequest
                0x8085093c      0x1fc net/libnet.o
                0x8085093c                BootpRequest
 .text.BootpTimeout
                0x80850b38       0x44 net/libnet.o
 .text.DhcpRequest
                0x80850b7c        0x4 net/libnet.o
                0x80850b7c                DhcpRequest
 .text.__def_eth_init
                0x80850b80        0x8 net/libnet.o
                0x80850b80                cpu_eth_init
 .text.eth_current_changed
                0x80850b88       0x60 net/libnet.o
 .text.eth_parse_enetaddr
                0x80850be8       0x54 net/libnet.o
                0x80850be8                eth_parse_enetaddr
 .text.eth_getenv_enetaddr
                0x80850c3c       0x5c net/libnet.o
                0x80850c3c                eth_getenv_enetaddr
 .text.eth_setenv_enetaddr
                0x80850c98       0x34 net/libnet.o
                0x80850c98                eth_setenv_enetaddr
 .text.eth_getenv_enetaddr_by_index
                0x80850ccc       0x50 net/libnet.o
                0x80850ccc                eth_getenv_enetaddr_by_index
 .text.eth_get_dev_by_index
                0x80850d1c       0x40 net/libnet.o
                0x80850d1c                eth_get_dev_by_index
 .text.eth_get_dev_index
                0x80850d5c       0x1c net/libnet.o
                0x80850d5c                eth_get_dev_index
 .text.eth_write_hwaddr
                0x80850d78      0x1d8 net/libnet.o
                0x80850d78                eth_write_hwaddr
 .text.eth_register
                0x80850f50       0x7c net/libnet.o
                0x80850f50                eth_register
 .text.eth_initialize
                0x80850fcc      0x1d0 net/libnet.o
                0x80850fcc                eth_initialize
 .text.eth_halt
                0x8085119c       0x30 net/libnet.o
                0x8085119c                eth_halt
 .text.eth_send
                0x808511cc       0x38 net/libnet.o
                0x808511cc                eth_send
 .text.eth_rx   0x80851204       0x24 net/libnet.o
                0x80851204                eth_rx
 .text.eth_try_another
                0x80851228       0x84 net/libnet.o
                0x80851228                eth_try_another
 .text.eth_init
                0x808512ac       0xd0 net/libnet.o
                0x808512ac                eth_init
 .text.eth_set_current
                0x8085137c       0xa4 net/libnet.o
                0x8085137c                eth_set_current
 .text.eth_get_name
                0x80851420       0x20 net/libnet.o
                0x80851420                eth_get_name
 .text.startAgainTimeout
                0x80851440       0x14 net/libnet.o
 .text.dummy_handler
                0x80851454        0x4 net/libnet.o
 .text.net_clear_handlers
                0x80851458       0x34 net/libnet.o
 .text.net_auto_load
                0x8085148c       0x64 net/libnet.o
                0x8085148c                net_auto_load
 .text.NetStartAgain
                0x808514f0      0x150 net/libnet.o
                0x808514f0                NetStartAgain
 .text.net_set_udp_handler
                0x80851640       0x20 net/libnet.o
                0x80851640                net_set_udp_handler
 .text.net_get_arp_handler
                0x80851660       0x10 net/libnet.o
                0x80851660                net_get_arp_handler
 .text.NetSetTimeout
                0x80851670       0x5c net/libnet.o
                0x80851670                NetSetTimeout
 .text.NetCksum
                0x808516cc       0x30 net/libnet.o
                0x808516cc                NetCksum
 .text.NetCksumOk
                0x808516fc       0x20 net/libnet.o
                0x808516fc                NetCksumOk
 .text.NetReceive
                0x8085171c      0x270 net/libnet.o
                0x8085171c                NetReceive
 .text.NetEthHdrSize
                0x8085198c       0x38 net/libnet.o
                0x8085198c                NetEthHdrSize
 .text.NetSetEther
                0x808519c4       0x94 net/libnet.o
                0x808519c4                NetSetEther
 .text.net_update_ether
                0x80851a58       0x78 net/libnet.o
                0x80851a58                net_update_ether
 .text.net_set_ip_header
                0x80851ad0       0x88 net/libnet.o
                0x80851ad0                net_set_ip_header
 .text.net_set_udp_header
                0x80851b58       0x88 net/libnet.o
                0x80851b58                net_set_udp_header
 .text.NetSendUDPPacket
                0x80851be0      0x10c net/libnet.o
                0x80851be0                NetSendUDPPacket
 .text.copy_filename
                0x80851cec       0x44 net/libnet.o
                0x80851cec                copy_filename
 .text.on_bootfile
                0x80851d30       0x2c net/libnet.o
 .text.ip_to_string
                0x80851d5c       0x38 net/libnet.o
                0x80851d5c                ip_to_string
 .text.string_to_VLAN
                0x80851d94       0x44 net/libnet.o
                0x80851d94                string_to_VLAN
 .text.getenv_VLAN
                0x80851dd8       0x10 net/libnet.o
                0x80851dd8                getenv_VLAN
 .text.NetInitLoop
                0x80851de8       0xf0 net/libnet.o
 .text.net_init
                0x80851ed8       0x70 net/libnet.o
                0x80851ed8                net_init
 .text.NetLoop  0x80851f48      0x358 net/libnet.o
                0x80851f48                NetLoop
 .text.rpc_lookup_reply
                0x808522a0       0xb0 net/libnet.o
 .text.nfs_mount_reply
                0x80852350       0xa8 net/libnet.o
 .text.nfs_umountall_reply
                0x808523f8       0x98 net/libnet.o
 .text.nfs_lookup_reply
                0x80852490       0x98 net/libnet.o
 .text.nfs_readlink_reply
                0x80852528       0xf8 net/libnet.o
 .text.basename
                0x80852620       0x3c net/libnet.o
 .text.rpc_add_credentials
                0x8085265c       0xb4 net/libnet.o
 .text.rpc_req  0x80852710       0xf8 net/libnet.o
 .text.nfs_mount_req
                0x80852808       0x94 net/libnet.o
 .text.nfs_umountall_req
                0x8085289c       0x60 net/libnet.o
 .text.nfs_lookup_req
                0x808528fc       0xa8 net/libnet.o
 .text.nfs_read_req
                0x808529a4       0x78 net/libnet.o
 .text.nfs_readlink_req
                0x80852a1c       0x58 net/libnet.o
 .text.nfs_read_reply.isra.0
                0x80852a74      0x138 net/libnet.o
 .text.NfsSend  0x80852bac      0x114 net/libnet.o
 .text.NfsHandler
                0x80852cc0      0x224 net/libnet.o
 .text.NfsTimeout
                0x80852ee4       0x64 net/libnet.o
 .text.NfsStart
                0x80852f48      0x254 net/libnet.o
                0x80852f48                NfsStart
 .text.ping_timeout
                0x8085319c       0x1c net/libnet.o
 .text.ping_start
                0x808531b8      0x124 net/libnet.o
                0x808531b8                ping_start
 .text.ping_receive
                0x808532dc       0xe8 net/libnet.o
                0x808532dc                ping_receive
 .text.TftpSend
                0x808533c4      0x1c8 net/libnet.o
 .text.TftpHandler
                0x8085358c      0x36c net/libnet.o
 .text.TftpTimeout
                0x808538f8       0x88 net/libnet.o
 .text.TftpStart
                0x80853980      0x33c net/libnet.o
                0x80853980                TftpStart
 .text.raise    0x80853cbc       0x1c /home/ru/Knobloch/wrk/BuildRoot/ft-TXT/board/knobloch/TXT/board-support/u-boot-2013.10-ti2013.12.01/arch/arm/lib/eabi_compat.o
                0x80853cbc                raise
 .text          0x80853cd8      0x278 /home/ru/Knobloch/wrk/BuildRoot/ft-TXT/output/host/opt/ext-toolchain/bin/../lib/gcc/arm-linux-gnueabihf/4.9.1/libgcc.a(_udivsi3.o)
                0x80853cd8                __udivsi3
                0x80853cd8                __aeabi_uidiv
                0x80853f34                __aeabi_uidivmod
 .text          0x80853f50      0x2b0 /home/ru/Knobloch/wrk/BuildRoot/ft-TXT/output/host/opt/ext-toolchain/bin/../lib/gcc/arm-linux-gnueabihf/4.9.1/libgcc.a(_divsi3.o)
                0x80853f50                __aeabi_idiv
                0x80853f50                __divsi3
                0x808541e4                __aeabi_idivmod
 .text          0x80854200       0x18 /home/ru/Knobloch/wrk/BuildRoot/ft-TXT/output/host/opt/ext-toolchain/bin/../lib/gcc/arm-linux-gnueabihf/4.9.1/libgcc.a(_lshrdi3.o)
                0x80854200                __aeabi_llsr
                0x80854200                __lshrdi3
 .text          0x80854218       0x1c /home/ru/Knobloch/wrk/BuildRoot/ft-TXT/output/host/opt/ext-toolchain/bin/../lib/gcc/arm-linux-gnueabihf/4.9.1/libgcc.a(_ashrdi3.o)
                0x80854218                __ashrdi3
                0x80854218                __aeabi_lasr
 .text          0x80854234       0x18 /home/ru/Knobloch/wrk/BuildRoot/ft-TXT/output/host/opt/ext-toolchain/bin/../lib/gcc/arm-linux-gnueabihf/4.9.1/libgcc.a(_ashldi3.o)
                0x80854234                __ashldi3
                0x80854234                __aeabi_llsl
 .text          0x8085424c        0xc /home/ru/Knobloch/wrk/BuildRoot/ft-TXT/output/host/opt/ext-toolchain/bin/../lib/gcc/arm-linux-gnueabihf/4.9.1/libgcc.a(_dvmd_lnx.o)
                0x8085424c                __aeabi_ldiv0
                0x8085424c                __aeabi_idiv0

.glue_7         0x80854258        0x0
 .glue_7        0x00000000        0x0 linker stubs

.glue_7t        0x80854258        0x0
 .glue_7t       0x00000000        0x0 linker stubs

.vfp11_veneer   0x80854258        0x0
 .vfp11_veneer  0x00000000        0x0 linker stubs

.v4_bx          0x80854258        0x0
 .v4_bx         0x00000000        0x0 linker stubs

.iplt           0x80854258        0x0
 .iplt          0x00000000        0x0 arch/arm/cpu/armv7/start.o
                0x80854258                . = ALIGN (0x4)

.rodata         0x80854258    0x14941
 *(SORT(.rodata*))
 .rodata.location.7106
                0x80854258       0x60 common/libcommon.o
 .rodata        0x808542b8       0x1c arch/arm/cpu/armv7/omap-common/libomap-common.o
 .rodata        0x808542d4       0x80 arch/arm/lib/libarm.o
 .rodata        0x80854354       0x30 drivers/dfu/libdfu.o
 .rodata.CSWTCH.16
                0x80854384       0x1c drivers/usb/musb-new/libusb_musb-new.o
 .rodata.CSWTCH.26
                0x808543a0       0x14 common/libcommon.o
 .rodata.CSWTCH.28
                0x808543b4       0x20 common/libcommon.o
 .rodata.bitpattern.6327
                0x808543d4       0x20 common/libcommon.o
 .rodata.block_drvr
                0x808543f4       0x18 disk/libdisk.o
 .rodata.boot_os
                0x8085440c       0x60 common/libcommon.o
 .rodata.crc32table_le
                0x8085446c      0x400 drivers/mtd/ubi/libubi.o
 .rodata.crc_table
                0x8085486c      0x400 lib/libgeneric.o
 .rodata.desc_and_len_tbl
                0x80854c6c       0x30 common/libcommon.o
 .rodata.dfu_state
                0x80854c9c       0x2c drivers/usb/gadget/libusb_gadget.o
 .rodata.env_flags_varaccess_mask
                0x80854cc8       0x10 common/libcommon.o
 .rodata.ext_csd_bits.6625
                0x80854cd8        0xc drivers/mmc/libmmc.o
 .rodata.ext_to_hostcaps.6626
                0x80854ce4        0xc drivers/mmc/libmmc.o
 .rodata.fbase  0x80854cf0       0x10 drivers/mmc/libmmc.o
 .rodata.fdt_errtable
                0x80854d00       0x34 lib/libfdt/libfdt.o
 .rodata.gpio_bank_am33xx
                0x80854d34       0x20 arch/arm/cpu/armv7/am33xx/libam33xx.o
 .rodata.mon_lengths.6840
                0x80854d54       0x60 fs/ubifs/libubifs.o
 .rodata.multipliers
                0x80854db4       0x40 drivers/mmc/libmmc.o
 .rodata.musb_ep_ops
                0x80854df4       0x24 drivers/usb/musb-new/libusb_musb-new.o
 .rodata.musb_g_ep0_ops
                0x80854e18       0x24 drivers/usb/musb-new/libusb_musb-new.o
                0x80854e18                musb_g_ep0_ops
 .rodata.musb_gadget_operations
                0x80854e3c       0x1c drivers/usb/musb-new/libusb_musb-new.o
 .rodata.nand_flash_ids
                0x80854e58      0x6d8 drivers/mtd/nand/libnand.o
                0x80854e58                nand_flash_ids
 .rodata.oid_supported_list
                0x80855530       0x70 drivers/usb/gadget/libusb_gadget.o
 .rodata.omap_gpio_bank
                0x808555a0        0x4 arch/arm/cpu/armv7/am33xx/libam33xx.o
                0x808555a0                omap_gpio_bank
 .rodata.op_table
                0x808555a4       0x68 common/libcommon.o
 .rodata.reg_0_5_desc_tbl
                0x8085560c       0x30 common/libcommon.o
 .rodata.reg_0_desc_tbl
                0x8085563c       0x78 common/libcommon.o
 .rodata.reg_1_desc_tbl
                0x808556b4       0xc0 common/libcommon.o
 .rodata.reg_2_desc_tbl
                0x80855774        0xc common/libcommon.o
 .rodata.reg_3_desc_tbl
                0x80855780       0x24 common/libcommon.o
 .rodata.reg_4_desc_tbl
                0x808557a4       0x90 common/libcommon.o
 .rodata.reg_5_desc_tbl
                0x80855834       0x90 common/libcommon.o
 .rodata.serial_ports
                0x808558c4       0x18 drivers/serial/libserial.o
 .rodata.spi_flash_params_table
                0x808558dc      0x1b0 drivers/mtd/spi/libspi_flash.o
 .rodata.subcmd_list
                0x80855a8c       0x10 common/libcommon.o
 .rodata.uimage_arch
                0x80855a9c      0x108 common/libcommon.o
 .rodata.uimage_comp
                0x80855ba4       0x48 common/libcommon.o
 .rodata.uimage_os
                0x80855bec       0x60 common/libcommon.o
 .rodata.uimage_type
                0x80855c4c       0xd8 common/libcommon.o
 .rodata.widths.6627
                0x80855d24        0xc drivers/mmc/libmmc.o
 .rodata.year_lengths.6841
                0x80855d30        0x8 fs/ubifs/libubifs.o
 .rodata.crc16_tab
                0x80855d38      0x200 lib/libgeneric.o
 .rodata.crc16_table
                0x80855f38      0x200 fs/ubifs/libubifs.o
                0x80855f38                crc16_table
 .rodata.dbase.6460
                0x80856138       0x40 lib/zlib/libz.o
 .rodata.dext.6461
                0x80856178       0x40 lib/zlib/libz.o
 .rodata.distfix
                0x808561b8       0x80 lib/zlib/libz.o
 .rodata.lbase.6458
                0x80856238       0x3e lib/zlib/libz.o
 .rodata.lenfix
                0x80856276      0x800 lib/zlib/libz.o
 .rodata.lext.6459
                0x80856a76       0x3e lib/zlib/libz.o
 .rodata.order.6554
                0x80856ab4       0x26 lib/zlib/libz.o
 .rodata        0x80856ada        0x3 common/libcommon.o
 .rodata        0x80856add       0x10 disk/libdisk.o
 .rodata        0x80856aed        0xe net/libnet.o
 .rodata.CSWTCH.62
                0x80856afb       0x16 common/libcommon.o
 .rodata.__FUNCTION__.6752
                0x80856b11       0x12 drivers/mtd/libmtd.o
 .rodata.__FUNCTION__.6994
                0x80856b23        0xb drivers/mtd/nand/libnand.o
 .rodata.__FUNCTION__.7034
                0x80856b2e       0x11 drivers/mtd/nand/libnand.o
 .rodata.__FUNCTION__.7053
                0x80856b3f       0x17 common/libcommon.o
 .rodata.__FUNCTION__.7143
                0x80856b56       0x11 drivers/mtd/nand/libnand.o
 .rodata.__FUNCTION__.7268
                0x80856b67        0xc drivers/mtd/ubi/libubi.o
 .rodata.__FUNCTION__.7369
                0x80856b73        0xf drivers/mtd/ubi/libubi.o
 .rodata.__FUNCTION__.7393
                0x80856b82       0x12 drivers/mtd/nand/libnand.o
 .rodata.__FUNCTION__.7512
                0x80856b94       0x11 drivers/usb/gadget/libusb_gadget.o
 .rodata.__FUNCTION__.7645
                0x80856ba5        0xe drivers/mtd/nand/libnand.o
 .rodata.__FUNCTION__.7909
                0x80856bb3       0x12 drivers/usb/musb-new/libusb_musb-new.o
 .rodata.__FUNCTION__.7919
                0x80856bc5        0xf drivers/mtd/nand/libnand.o
 .rodata.__FUNCTION__.8832
                0x80856bd4        0xb fs/ubifs/libubifs.o
 .rodata.__func__.6260
                0x80856bdf        0xf disk/libdisk.o
 .rodata.__func__.6272
                0x80856bee       0x17 disk/libdisk.o
 .rodata.__func__.6282
                0x80856c05       0x13 disk/libdisk.o
 .rodata.__func__.6291
                0x80856c18       0x10 common/libcommon.o
 .rodata.__func__.6302
                0x80856c28        0xb common/libcommon.o
 .rodata.__func__.6340
                0x80856c33        0xf fs/ext4/libext4fs.o
 .rodata.__func__.6349
                0x80856c42        0xc disk/libdisk.o
 .rodata.__func__.6370
                0x80856c4e        0xd disk/libdisk.o
 .rodata.__func__.6378
                0x80856c5b       0x17 disk/libdisk.o
 .rodata.__func__.6383
                0x80856c72        0xd disk/libdisk.o
 .rodata.__func__.6487
                0x80856c7f        0xe common/libcommon.o
 .rodata.__func__.6521
                0x80856c8d        0xe common/libcommon.o
 .rodata.__func__.6539
                0x80856c9b       0x10 common/libcommon.o
 .rodata.__func__.6828
                0x80856cab       0x19 common/libcommon.o
 .rodata.__func__.6973
                0x80856cc4       0x10 drivers/mmc/libmmc.o
 .rodata.__func__.7003
                0x80856cd4        0xf drivers/mmc/libmmc.o
 .rodata.__func__.7067
                0x80856ce3       0x19 drivers/mmc/libmmc.o
 .rodata.__func__.7082
                0x80856cfc        0xd drivers/mmc/libmmc.o
 .rodata.__func__.7107
                0x80856d09        0x8 common/libcommon.o
 .rodata.__func__.7130
                0x80856d11        0xe drivers/mmc/libmmc.o
 .rodata.__func__.7160
                0x80856d1f       0x18 drivers/dfu/libdfu.o
 .rodata.__func__.7165
                0x80856d37        0xf drivers/mmc/libmmc.o
 .rodata.__func__.7178
                0x80856d46       0x14 drivers/dfu/libdfu.o
 .rodata.__func__.7195
                0x80856d5a        0xc drivers/dfu/libdfu.o
 .rodata.__func__.7208
                0x80856d66       0x15 drivers/dfu/libdfu.o
 .rodata.__func__.7225
                0x80856d7b       0x14 drivers/dfu/libdfu.o
 .rodata.__func__.7230
                0x80856d8f        0xc drivers/mmc/libmmc.o
 .rodata.__func__.7231
                0x80856d9b       0x18 drivers/mtd/ubi/libubi.o
 .rodata.__func__.7236
                0x80856db3       0x14 drivers/dfu/libdfu.o
 .rodata.__func__.7267
                0x80856dc7       0x17 drivers/usb/gadget/libusb_gadget.o
 .rodata.__func__.7271
                0x80856dde        0xc drivers/mtd/ubi/libubi.o
 .rodata.__func__.7278
                0x80856dea        0xb common/libcommon.o
 .rodata.__func__.7280
                0x80856df5       0x11 drivers/mtd/ubi/libubi.o
 .rodata.__func__.7282
                0x80856e06        0xd drivers/mtd/ubi/libubi.o
 .rodata.__func__.7286
                0x80856e13       0x10 drivers/mtd/ubi/libubi.o
 .rodata.__func__.7287
                0x80856e23        0xb drivers/mtd/ubi/libubi.o
 .rodata.__func__.7291
                0x80856e2e        0x8 drivers/mtd/ubi/libubi.o
 .rodata.__func__.7292
                0x80856e36       0x16 drivers/dfu/libdfu.o
 .rodata.__func__.7294
                0x80856e4c       0x12 drivers/mtd/ubi/libubi.o
 .rodata.__func__.7295
                0x80856e5e        0xe drivers/mtd/ubi/libubi.o
 .rodata.__func__.7302
                0x80856e6c        0xc drivers/dfu/libdfu.o
 .rodata.__func__.7302
                0x80856e78        0x9 drivers/mtd/ubi/libubi.o
 .rodata.__func__.7314
                0x80856e81        0xc drivers/mtd/ubi/libubi.o
 .rodata.__func__.7315
                0x80856e8d        0xd drivers/mtd/ubi/libubi.o
 .rodata.__func__.7317
                0x80856e9a        0xa drivers/dfu/libdfu.o
 .rodata.__func__.7322
                0x80856ea4        0xd drivers/mtd/ubi/libubi.o
 .rodata.__func__.7323
                0x80856eb1        0x8 drivers/mtd/ubi/libubi.o
 .rodata.__func__.7325
                0x80856eb9       0x12 drivers/mtd/ubi/libubi.o
 .rodata.__func__.7325
                0x80856ecb        0xa drivers/usb/gadget/libusb_gadget.o
 .rodata.__func__.7332
                0x80856ed5        0xe drivers/mtd/ubi/libubi.o
 .rodata.__func__.7333
                0x80856ee3        0xb drivers/mtd/ubi/libubi.o
 .rodata.__func__.7334
                0x80856eee        0xd drivers/mtd/ubi/libubi.o
 .rodata.__func__.7339
                0x80856efb       0x22 drivers/mtd/ubi/libubi.o
 .rodata.__func__.7340
                0x80856f1d        0x9 drivers/dfu/libdfu.o
 .rodata.__func__.7345
                0x80856f26       0x13 drivers/mtd/ubi/libubi.o
 .rodata.__func__.7347
                0x80856f39       0x10 drivers/mtd/ubi/libubi.o
 .rodata.__func__.7348
                0x80856f49        0xf drivers/usb/gadget/libusb_gadget.o
 .rodata.__func__.7349
                0x80856f58       0x10 drivers/dfu/libdfu.o
 .rodata.__func__.7353
                0x80856f68       0x11 drivers/mtd/ubi/libubi.o
 .rodata.__func__.7355
                0x80856f79        0xf drivers/mtd/ubi/libubi.o
 .rodata.__func__.7357
                0x80856f88       0x13 drivers/mtd/ubi/libubi.o
 .rodata.__func__.7358
                0x80856f9b        0xd drivers/mtd/ubi/libubi.o
 .rodata.__func__.7360
                0x80856fa8       0x13 drivers/mtd/ubi/libubi.o
 .rodata.__func__.7368
                0x80856fbb        0x9 drivers/mtd/ubi/libubi.o
 .rodata.__func__.7370
                0x80856fc4        0x9 drivers/mtd/ubi/libubi.o
 .rodata.__func__.7375
                0x80856fcd        0xc drivers/mtd/ubi/libubi.o
 .rodata.__func__.7377
                0x80856fd9       0x14 drivers/mtd/ubi/libubi.o
 .rodata.__func__.7383
                0x80856fed       0x24 drivers/mtd/ubi/libubi.o
 .rodata.__func__.7389
                0x80857011       0x16 drivers/mtd/ubi/libubi.o
 .rodata.__func__.7390
                0x80857027       0x12 drivers/mtd/ubi/libubi.o
 .rodata.__func__.7391
                0x80857039        0xb drivers/mtd/ubi/libubi.o
 .rodata.__func__.7396
                0x80857044       0x14 drivers/mtd/ubi/libubi.o
 .rodata.__func__.7409
                0x80857058       0x16 drivers/mtd/ubi/libubi.o
 .rodata.__func__.7410
                0x8085706e       0x15 drivers/mtd/ubi/libubi.o
 .rodata.__func__.7420
                0x80857083        0xb drivers/mtd/ubi/libubi.o
 .rodata.__func__.7433
                0x8085708e       0x15 drivers/mtd/ubi/libubi.o
 .rodata.__func__.7433
                0x808570a3        0x9 drivers/usb/gadget/libusb_gadget.o
 .rodata.__func__.7446
                0x808570ac       0x11 drivers/mtd/ubi/libubi.o
 .rodata.__func__.7446
                0x808570bd        0xd drivers/usb/gadget/libusb_gadget.o
 .rodata.__func__.7455
                0x808570ca        0xd drivers/mtd/ubi/libubi.o
 .rodata.__func__.7462
                0x808570d7        0xd drivers/usb/gadget/libusb_gadget.o
 .rodata.__func__.7466
                0x808570e4        0xf drivers/mtd/ubi/libubi.o
 .rodata.__func__.7471
                0x808570f3        0xd drivers/usb/gadget/libusb_gadget.o
 .rodata.__func__.7474
                0x80857100       0x11 drivers/mtd/ubi/libubi.o
 .rodata.__func__.7476
                0x80857111       0x12 drivers/mtd/ubi/libubi.o
 .rodata.__func__.7476
                0x80857123        0xd drivers/usb/gadget/libusb_gadget.o
 .rodata.__func__.7565
                0x80857130       0x11 drivers/mtd/ubi/libubi.o
 .rodata.__func__.7603
                0x80857141        0xf drivers/usb/gadget/libusb_gadget.o
 .rodata.__func__.7899
                0x80857150        0xf drivers/usb/musb-new/libusb_musb-new.o
 .rodata.__func__.7913
                0x8085715f        0xf drivers/usb/musb-new/libusb_musb-new.o
 .rodata.__func__.7940
                0x8085716e       0x10 drivers/usb/musb-new/libusb_musb-new.o
 .rodata.__func__.7963
                0x8085717e       0x14 drivers/usb/musb-new/libusb_musb-new.o
 .rodata.__func__.7977
                0x80857192        0xf drivers/usb/musb-new/libusb_musb-new.o
 .rodata.__func__.7981
                0x808571a1        0xf common/libcommon.o
 .rodata.__func__.7989
                0x808571b0       0x1a common/libcommon.o
 .rodata.__func__.8007
                0x808571ca        0xe drivers/dfu/libdfu.o
 .rodata.__func__.8025
                0x808571d8        0xd drivers/usb/musb-new/libusb_musb-new.o
 .rodata.__func__.8031
                0x808571e5       0x16 drivers/dfu/libdfu.o
 .rodata.__func__.8042
                0x808571fb       0x15 drivers/dfu/libdfu.o
 .rodata.__func__.8049
                0x80857210       0x16 drivers/dfu/libdfu.o
 .rodata.__func__.8062
                0x80857226       0x15 drivers/dfu/libdfu.o
 .rodata.__func__.8404
                0x8085723b       0x20 fs/ubifs/libubifs.o
 .rodata.__func__.8671
                0x8085725b        0xc fs/ubifs/libubifs.o
 .rodata.__func__.8679
                0x80857267        0xf fs/ubifs/libubifs.o
 .rodata.__func__.8682
                0x80857276       0x10 fs/ubifs/libubifs.o
 .rodata.__func__.8683
                0x80857286       0x11 fs/ubifs/libubifs.o
 .rodata.__func__.8685
                0x80857297       0x16 fs/ubifs/libubifs.o
 .rodata.__func__.8687
                0x808572ad       0x12 fs/ubifs/libubifs.o
 .rodata.__func__.8689
                0x808572bf       0x21 fs/ubifs/libubifs.o
 .rodata.__func__.8699
                0x808572e0       0x30 fs/ubifs/libubifs.o
 .rodata.__func__.8706
                0x80857310        0x5 fs/ubifs/libubifs.o
 .rodata.__func__.8709
                0x80857315       0x10 fs/ubifs/libubifs.o
 .rodata.__func__.8718
                0x80857325        0xb fs/ubifs/libubifs.o
 .rodata.__func__.8719
                0x80857330        0xb fs/ubifs/libubifs.o
 .rodata.__func__.8721
                0x8085733b       0x2a fs/ubifs/libubifs.o
 .rodata.__func__.8728
                0x80857365       0x15 fs/ubifs/libubifs.o
 .rodata.__func__.8729
                0x8085737a       0x19 fs/ubifs/libubifs.o
 .rodata.__func__.8743
                0x80857393        0xb fs/ubifs/libubifs.o
 .rodata.__func__.8757
                0x8085739e       0x20 fs/ubifs/libubifs.o
 .rodata.__func__.8768
                0x808573be        0xe fs/ubifs/libubifs.o
 .rodata.__func__.8770
                0x808573cc        0xc fs/ubifs/libubifs.o
 .rodata.__func__.8779
                0x808573d8        0xc fs/ubifs/libubifs.o
 .rodata.__func__.8782
                0x808573e4        0xe fs/ubifs/libubifs.o
 .rodata.__func__.8789
                0x808573f2        0xf fs/ubifs/libubifs.o
 .rodata.__func__.8791
                0x80857401       0x15 fs/ubifs/libubifs.o
 .rodata.__func__.8801
                0x80857416       0x11 fs/ubifs/libubifs.o
 .rodata.__func__.8803
                0x80857427       0x12 fs/ubifs/libubifs.o
 .rodata.__func__.8805
                0x80857439        0xb fs/ubifs/libubifs.o
 .rodata.__func__.8820
                0x80857444        0xd fs/ubifs/libubifs.o
 .rodata.__func__.8821
                0x80857451       0x11 fs/ubifs/libubifs.o
 .rodata.__func__.8825
                0x80857462        0xd fs/ubifs/libubifs.o
 .rodata.__func__.8836
                0x8085746f       0x16 fs/ubifs/libubifs.o
 .rodata.__func__.8838
                0x80857485        0xc fs/ubifs/libubifs.o
 .rodata.__func__.8843
                0x80857491        0x8 fs/ubifs/libubifs.o
 .rodata.__func__.8844
                0x80857499       0x10 fs/ubifs/libubifs.o
 .rodata.__func__.8855
                0x808574a9        0xf fs/ubifs/libubifs.o
 .rodata.__func__.8873
                0x808574b8       0x23 fs/ubifs/libubifs.o
 .rodata.__func__.8879
                0x808574db       0x11 fs/ubifs/libubifs.o
 .rodata.__func__.8891
                0x808574ec        0xd fs/ubifs/libubifs.o
 .rodata.__func__.8897
                0x808574f9        0xb fs/ubifs/libubifs.o
 .rodata.__func__.8902
                0x80857504        0xf fs/ubifs/libubifs.o
 .rodata.__func__.8912
                0x80857513        0x9 fs/ubifs/libubifs.o
 .rodata.__func__.8929
                0x8085751c        0xb fs/ubifs/libubifs.o
 .rodata.__func__.8935
                0x80857527       0x15 fs/ubifs/libubifs.o
 .rodata.__func__.8944
                0x8085753c        0xc fs/ubifs/libubifs.o
 .rodata.__func__.8967
                0x80857548        0xb fs/ubifs/libubifs.o
 .rodata._ctype
                0x80857553      0x100 lib/libgeneric.o
                0x80857553                _ctype
 .rodata.acm_descriptor
                0x80857653        0x4 drivers/usb/gadget/libusb_gadget.o
 .rodata.call_mgmt_descriptor
                0x80857657        0x5 drivers/usb/gadget/libusb_gadget.o
 .rodata.day_name.6834
                0x8085765c       0x15 fs/ubifs/libubifs.o
 .rodata.default_environment
                0x80857671     0x112e common/libcommon.o
                0x80857671                default_environment
 .rodata.delims.6169
                0x8085879f        0x3 common/libcommon.o
 .rodata.dfu_func
                0x808587a2        0x9 drivers/usb/gadget/libusb_gadget.o
 .rodata.dfu_name
                0x808587ab       0x18 drivers/usb/gadget/libusb_gadget.o
 .rodata.digits.6173
                0x808587c3       0x10 lib/libgeneric.o
 .rodata.driver_desc
                0x808587d3       0x10 drivers/usb/gadget/libusb_gadget.o
 .rodata.env_flags_varaccess_rep
                0x808587e3        0x5 common/libcommon.o
 .rodata.env_flags_vartype_rep
                0x808587e8        0x7 common/libcommon.o
 .rodata.erase_seq
                0x808587ef        0x4 common/libcommon.o
 .rodata.header_desc
                0x808587f3        0x5 drivers/usb/gadget/libusb_gadget.o
 .rodata.hex_asc
                0x808587f8       0x11 lib/libgeneric.o
 .rodata.le.6237
                0x80858809       0x10 disk/libdisk.o
 .rodata.lzop_magic
                0x80858819        0x9 lib/lzo/liblzo.o
 .rodata.manufacturer
                0x80858822       0x12 drivers/usb/gadget/libusb_gadget.o
 .rodata.mon_name.6835
                0x80858834       0x24 fs/ubifs/libubifs.o
 .rodata.musb_driver_name
                0x80858858        0xa drivers/usb/musb-new/libusb_musb-new.o
                0x80858858                musb_driver_name
 .rodata.musb_test_packet
                0x80858862       0x35 drivers/usb/musb-new/libusb_musb-new.o
 .rodata.names.6174
                0x80858897        0x6 lib/libgeneric.o
 .rodata.nand_ecc_precalc_table
                0x8085889d      0x100 drivers/mtd/nand/libnand.o
 .rodata.patterns
                0x8085899d        0x3 drivers/mtd/ubi/libubi.o
 .rodata.product
                0x808589a0       0x14 drivers/usb/gadget/libusb_gadget.o
 .rodata.rndis_control_intf
                0x808589b4        0x9 drivers/usb/gadget/libusb_gadget.o
 .rodata.rndis_data_intf
                0x808589bd        0x9 drivers/usb/gadget/libusb_gadget.o
 .rodata.shortname
                0x808589c6        0x9 drivers/usb/gadget/libusb_gadget.o
 .rodata.str1.1
                0x808589cf      0x4e4 board/knobloch/TXT/libTXT.o
 .rodata.str1.1
                0x80858eb3      0x3e7 arch/arm/lib/libarm.o
                                0x40c (size before relaxing)
 .rodata.str1.1
                0x8085929a     0x8aa9 common/libcommon.o
                               0x92d2 (size before relaxing)
 .rodata.str1.1
                0x80861d43      0x736 disk/libdisk.o
                                0x788 (size before relaxing)
 .rodata.str1.1
                0x80862479      0x479 drivers/dfu/libdfu.o
                                0x52f (size before relaxing)
 .rodata.str1.1
                0x808628f2       0x57 drivers/gpio/libgpio.o
 .rodata.str1.1
                0x80862949      0x44c drivers/i2c/libi2c.o
 .rodata.str1.1
                0x80862d95      0x2e4 drivers/mmc/libmmc.o
                                0x337 (size before relaxing)
 .rodata.str1.1
                0x80863079      0x1b4 drivers/mtd/libmtd.o
                                0x1d6 (size before relaxing)
 .rodata.str1.1
                0x8086322d      0x9b5 drivers/mtd/nand/libnand.o
                                0xa11 (size before relaxing)
 .rodata.str1.1
                0x80863be2      0x1d0 drivers/mtd/spi/libspi_flash.o
                                0x1d3 (size before relaxing)
 .rodata.str1.1
                0x80863db2     0x178f drivers/mtd/ubi/libubi.o
                               0x1b60 (size before relaxing)
 .rodata.str1.1
                0x80865541      0x13b drivers/net/phy/libphy.o
                                0x13d (size before relaxing)
 .rodata.str1.1
                0x8086567c       0x57 drivers/serial/libserial.o
                                 0x92 (size before relaxing)
 .rodata.str1.1
                0x808656d3      0x145 drivers/spi/libspi.o
 .rodata.str1.1
                0x80865818      0x4d5 drivers/usb/gadget/libusb_gadget.o
                                0x550 (size before relaxing)
 .rodata.str1.1
                0x80865ced      0x2e0 drivers/usb/musb-new/libusb_musb-new.o
                                0x317 (size before relaxing)
 .rodata.str1.1
                0x80865fcd      0x370 fs/ext4/libext4fs.o
 .rodata.str1.1
                0x8086633d      0x2e6 fs/fat/libfat.o
                                0x31b (size before relaxing)
 .rodata.str1.1
                0x80866623       0x9e fs/libfs.o
                                 0xd7 (size before relaxing)
 .rodata.str1.1
                0x808666c1     0x17c9 fs/ubifs/libubifs.o
                               0x19c6 (size before relaxing)
 .rodata.str1.1
                0x80867e8a       0xfc lib/libfdt/libfdt.o
                                0x11c (size before relaxing)
 .rodata.str1.1
                0x80867f86      0x232 lib/libgeneric.o
                                0x253 (size before relaxing)
 .rodata.str1.1
                0x808681b8      0x21c lib/zlib/libz.o
                                0x21d (size before relaxing)
 .rodata.str1.1
                0x808683d4      0x754 net/libnet.o
                                0x8fd (size before relaxing)
 .rodata.str1.1
                0x80868b28       0x1b /home/ru/Knobloch/wrk/BuildRoot/ft-TXT/board/knobloch/TXT/board-support/u-boot-2013.10-ti2013.12.01/arch/arm/lib/eabi_compat.o
 .rodata.tab_seq
                0x80868b43        0x9 common/libcommon.o
 .rodata.union_desc
                0x80868b4c        0x5 drivers/usb/gadget/libusb_gadget.o
 .rodata.us_direction
                0x80868b51       0x20 common/libcommon.o
 .rodata.version_string
                0x80868b71       0x28 common/libcommon.o
                0x80868b71                version_string

.hash           0x80868b9c       0x2c
 .hash          0x80868b9c       0x2c arch/arm/cpu/armv7/start.o
                0x80868bc8                . = ALIGN (0x4)

.data           0x80868bc8     0x3cba
 *(.data*)
 .data.musb_config
                0x80868bc8       0x18 arch/arm/cpu/armv7/am33xx/libam33xx.o
 .data.otg1_board_data
                0x80868be0       0x10 arch/arm/cpu/armv7/am33xx/libam33xx.o
                0x80868be0                otg1_board_data
 .data.otg1_plat
                0x80868bf0       0x20 arch/arm/cpu/armv7/am33xx/libam33xx.o
 .data.otg0_board_data
                0x80868c10       0x10 arch/arm/cpu/armv7/am33xx/libam33xx.o
                0x80868c10                otg0_board_data
 .data.otg0_plat
                0x80868c20       0x20 arch/arm/cpu/armv7/am33xx/libam33xx.o
 .data.init_sequence
                0x80868c40       0x2c arch/arm/lib/libarm.o
                0x80868c40                init_sequence
 .data.bootm_help_text
                0x80868c6c      0x38b common/libcommon.o
 .data.bootz_help_text
                0x80868ff7      0x208 common/libcommon.o
 *fill*         0x808691ff        0x1 
 .data.cmd_bootm_sub
                0x80869200       0xfc common/libcommon.o
 .data.tabs.6901
                0x808692fc       0x21 common/libcommon.o
 .data.fdt_help_text
                0x8086931d      0x5e3 common/libcommon.o
 .data.root.6818
                0x80869900        0x2 common/libcommon.o
 .data.i2c_help_text
                0x80869902      0x2ff common/libcommon.o
 *fill*         0x80869c01        0x3 
 .data.cmd_i2c_sub
                0x80869c04      0x150 common/libcommon.o
 .data.i2c_dp_last_length
                0x80869d54        0x4 common/libcommon.o
 .data.do_echo  0x80869d58        0x4 common/libcommon.o
 .data.dp_last_length
                0x80869d5c        0x4 common/libcommon.o
 .data.curr_device
                0x80869d60        0x4 common/libcommon.o
 .data.mtdparts_help_text
                0x80869d64      0x4d3 common/libcommon.o
 .data.nand_help_text
                0x8086a237      0x3e3 common/libcommon.o
 .data.env_help_text
                0x8086a61a      0x255 common/libcommon.o
 *fill*         0x8086a86f        0x1 
 .data.env_id   0x8086a870        0x4 common/libcommon.o
 .data.cmd_env_sub
                0x8086a874      0x118 common/libcommon.o
 .data.source_help_text
                0x8086a98c       0x4e common/libcommon.o
 *fill*         0x8086a9da        0x2 
 .data.cmd_spl_export_sub
                0x8086a9dc       0x38 common/libcommon.o
 .data.__compound_literal.0
                0x8086aa14       0x20 common/libcommon.o
 .data.__compound_literal.1
                0x8086aa34       0x1c common/libcommon.o
 .data.cmd_spl_sub
                0x8086aa50       0x1c common/libcommon.o
 .data.usb_stor_curr_dev
                0x8086aa6c        0x4 common/libcommon.o
 .data.imgextract_help_text
                0x8086aa70       0x55 common/libcommon.o
 *fill*         0x8086aac5        0x3 
 .data.av_      0x8086aac8      0x408 common/libcommon.o
 .data.sbrk_base
                0x8086aed0        0x4 common/libcommon.o
 .data.trim_threshold
                0x8086aed4        0x4 common/libcommon.o
 .data.env_htab
                0x8086aed8       0x10 common/libcommon.o
                0x8086aed8                env_htab
 .data.env_name_spec
                0x8086aee8        0x4 common/libcommon.o
                0x8086aee8                env_name_spec
 .data.reserved_list
                0x8086aeec       0x84 common/libcommon.o
 .data.load_addr
                0x8086af70        0x4 common/libcommon.o
                0x8086af70                load_addr
 .data.hist_cur
                0x8086af74        0x4 common/libcommon.o
 .data.stdio_names
                0x8086af78        0xc common/libcommon.o
                0x8086af78                stdio_names
 .data.system_guid
                0x8086af84       0x10 disk/libdisk.o
 .data.dfu_list
                0x8086af94        0x8 drivers/dfu/libdfu.o
 .data.dfu_buf_size
                0x8086af9c        0x4 drivers/dfu/libdfu.o
 .data          0x8086afa0       0x14 drivers/i2c/libi2c.o
 .data.cur_dev_num
                0x8086afb4        0x4 drivers/mmc/libmmc.o
 .data.nand_curr_device
                0x8086afb8        0x4 drivers/mtd/nand/libnand.o
                0x8086afb8                nand_curr_device
 .data.bbt_mirror_descr
                0x8086afbc       0x24 drivers/mtd/nand/libnand.o
 .data.mirror_pattern
                0x8086afe0        0x4 drivers/mtd/nand/libnand.o
 .data.bbt_main_no_oob_descr
                0x8086afe4       0x24 drivers/mtd/nand/libnand.o
 .data.scan_agand_pattern
                0x8086b008        0x6 drivers/mtd/nand/libnand.o
 *fill*         0x8086b00e        0x2 
 .data.bbt_mirror_no_oob_descr
                0x8086b010       0x24 drivers/mtd/nand/libnand.o
 .data.bbt_pattern
                0x8086b034        0x4 drivers/mtd/nand/libnand.o
 .data.scan_ff_pattern
                0x8086b038        0x2 drivers/mtd/nand/libnand.o
 *fill*         0x8086b03a        0x2 
 .data.bbt_main_descr
                0x8086b03c       0x24 drivers/mtd/nand/libnand.o
 .data.agand_flashbased
                0x8086b060       0x24 drivers/mtd/nand/libnand.o
 .data.nand_oob_8
                0x8086b084      0x448 drivers/mtd/nand/libnand.o
 .data.nand_oob_16
                0x8086b4cc      0x448 drivers/mtd/nand/libnand.o
 .data.nand_oob_128
                0x8086b914      0x448 drivers/mtd/nand/libnand.o
 .data.nand_oob_64
                0x8086bd5c      0x448 drivers/mtd/nand/libnand.o
 .data.bch_priv
                0x8086c1a4        0xc drivers/mtd/nand/libnand.o
 .data.phy_drivers
                0x8086c1b0        0x8 drivers/net/phy/libphy.o
 .data.lan8700_driver
                0x8086c1b8       0x2c drivers/net/phy/libphy.o
 .data.lan8710_driver
                0x8086c1e4       0x2c drivers/net/phy/libphy.o
 .data.lan911x_driver
                0x8086c210       0x2c drivers/net/phy/libphy.o
 .data.eserial1_device
                0x8086c23c       0x30 drivers/serial/libserial.o
                0x8086c23c                eserial1_device
 .data.eserial2_device
                0x8086c26c       0x30 drivers/serial/libserial.o
                0x8086c26c                eserial2_device
 .data.eserial3_device
                0x8086c29c       0x30 drivers/serial/libserial.o
                0x8086c29c                eserial3_device
 .data.eserial4_device
                0x8086c2cc       0x30 drivers/serial/libserial.o
                0x8086c2cc                eserial4_device
 .data.eserial5_device
                0x8086c2fc       0x30 drivers/serial/libserial.o
                0x8086c2fc                eserial5_device
 .data.eserial6_device
                0x8086c32c       0x30 drivers/serial/libserial.o
                0x8086c32c                eserial6_device
 .data.device_desc
                0x8086c35c       0x24 drivers/usb/gadget/libusb_gadget.o
 .data.g_dnl_composite_strings
                0x8086c380        0x8 drivers/usb/gadget/libusb_gadget.o
 .data.g_dnl_string_tab
                0x8086c388        0x8 drivers/usb/gadget/libusb_gadget.o
 .data.g_dnl_driver
                0x8086c390       0x20 drivers/usb/gadget/libusb_gadget.o
 .data.composite_driver
                0x8086c3b0       0x1c drivers/usb/gadget/libusb_gadget.o
 .data.g_dnl_string_defs
                0x8086c3cc       0x18 drivers/usb/gadget/libusb_gadget.o
 .data.dfu_strings
                0x8086c3e4        0x8 drivers/usb/gadget/libusb_gadget.o
 .data.dfu_intf_runtime
                0x8086c3ec        0x9 drivers/usb/gadget/libusb_gadget.o
 *fill*         0x8086c3f5        0x3 
 .data.stringtab_dfu_generic
                0x8086c3f8        0x8 drivers/usb/gadget/libusb_gadget.o
 .data.dfu_generic_strings
                0x8086c400        0x8 drivers/usb/gadget/libusb_gadget.o
 .data.dfu_runtime_descs
                0x8086c408        0x8 drivers/usb/gadget/libusb_gadget.o
 .data.strings_dfu_generic
                0x8086c410       0x10 drivers/usb/gadget/libusb_gadget.o
 .data.stringtab_dfu
                0x8086c420        0x8 drivers/usb/gadget/libusb_gadget.o
 .data.fs_source_desc
                0x8086c428        0x9 drivers/usb/gadget/libusb_gadget.o
 .data.hs_source_desc
                0x8086c431        0x9 drivers/usb/gadget/libusb_gadget.o
 *fill*         0x8086c43a        0x2 
 .data.strings  0x8086c43c       0x40 drivers/usb/gadget/libusb_gadget.o
 .data.eth_driver
                0x8086c47c       0x1c drivers/usb/gadget/libusb_gadget.o
 .data.hs_sink_desc
                0x8086c498        0x9 drivers/usb/gadget/libusb_gadget.o
 *fill*         0x8086c4a1        0x3 
 .data.fs_rndis_function
                0x8086c4a4       0x2c drivers/usb/gadget/libusb_gadget.o
 .data.dev_qualifier
                0x8086c4d0        0xa drivers/usb/gadget/libusb_gadget.o
 .data.hs_status_desc
                0x8086c4da        0x9 drivers/usb/gadget/libusb_gadget.o
 .data.fs_sink_desc
                0x8086c4e3        0x9 drivers/usb/gadget/libusb_gadget.o
 .data.hs_rndis_function
                0x8086c4ec       0x2c drivers/usb/gadget/libusb_gadget.o
 .data.eth_config
                0x8086c518        0x9 drivers/usb/gadget/libusb_gadget.o
 .data.product_desc
                0x8086c521       0x28 drivers/usb/gadget/libusb_gadget.o
 .data.otg_descriptor
                0x8086c549        0x3 drivers/usb/gadget/libusb_gadget.o
 .data.fs_status_desc
                0x8086c54c        0x9 drivers/usb/gadget/libusb_gadget.o
 *fill*         0x8086c555        0x3 
 .data.hs_eth_function
                0x8086c558       0x2c drivers/usb/gadget/libusb_gadget.o
 .data.fs_eth_function
                0x8086c584       0x2c drivers/usb/gadget/libusb_gadget.o
 .data.stringtab
                0x8086c5b0        0x8 drivers/usb/gadget/libusb_gadget.o
 .data.rndis_config
                0x8086c5b8        0x9 drivers/usb/gadget/libusb_gadget.o
 *fill*         0x8086c5c1        0x1 
 .data.mode_3_cfg
                0x8086c5c2       0x24 drivers/usb/musb-new/libusb_musb-new.o
 .data.mode_4_cfg
                0x8086c5e6       0xa2 drivers/usb/musb-new/libusb_musb-new.o
 .data.mode_5_cfg
                0x8086c688       0xa2 drivers/usb/musb-new/libusb_musb-new.o
 .data.mode_0_cfg
                0x8086c72a       0x1e drivers/usb/musb-new/libusb_musb-new.o
 .data.ep0_cfg  0x8086c748        0x6 drivers/usb/musb-new/libusb_musb-new.o
 .data.mode_1_cfg
                0x8086c74e       0x1e drivers/usb/musb-new/libusb_musb-new.o
 .data.mode_2_cfg
                0x8086c76c       0x24 drivers/usb/musb-new/libusb_musb-new.o
 .data.fifo_mode
                0x8086c790        0x2 drivers/usb/musb-new/libusb_musb-new.o
 *fill*         0x8086c792        0x2 
 .data.musb_dsps_ops
                0x8086c794       0x24 drivers/usb/musb-new/libusb_musb-new.o
                0x8086c794                musb_dsps_ops
 .data.ext4fs_indir3_blkno
                0x8086c7b8        0x4 fs/ext4/libext4fs.o
                0x8086c7b8                ext4fs_indir3_blkno
 .data.ext4fs_indir1_blkno
                0x8086c7bc        0x4 fs/ext4/libext4fs.o
                0x8086c7bc                ext4fs_indir1_blkno
 .data.ext4fs_indir2_blkno
                0x8086c7c0        0x4 fs/ext4/libext4fs.o
                0x8086c7c0                ext4fs_indir2_blkno
 .data.fstypes  0x8086c7c4       0x48 fs/libfs.o
 .data.lzo_compr
                0x8086c80c       0x10 fs/ubifs/libubifs.o
 .data.none_compr
                0x8086c81c       0x10 fs/ubifs/libubifs.o
 .data.zlib_compr
                0x8086c82c       0x10 fs/ubifs/libubifs.o
 .data.ubifs_fs_type
                0x8086c83c       0x20 fs/ubifs/libubifs.o
 .data.first_call.6354
                0x8086c85c        0x4 net/libnet.o
 .data.NetOurNativeVLAN
                0x8086c860        0x2 net/libnet.o
                0x8086c860                NetOurNativeVLAN
 .data.NetBcastAddr
                0x8086c862        0x6 net/libnet.o
                0x8086c862                NetBcastAddr
 .data.NetOurVLAN
                0x8086c868        0x2 net/libnet.o
                0x8086c868                NetOurVLAN
 *fill*         0x8086c86a        0x2 
 .data.nfs_offset
                0x8086c86c        0x4 net/libnet.o
 .data.TftpTimeoutCountMax
                0x8086c870        0x4 net/libnet.o
 .data.TftpRRQTimeoutCountMax
                0x8086c874        0x4 net/libnet.o
                0x8086c874                TftpRRQTimeoutCountMax
 .data.TftpBlkSizeOption
                0x8086c878        0x2 net/libnet.o
 *fill*         0x8086c87a        0x2 
 .data.TftpTimeoutMSecs
                0x8086c87c        0x4 net/libnet.o
 .data.TftpBlkSize
                0x8086c880        0x2 net/libnet.o

.got            0x8086c884        0x0
 .got           0x00000000        0x0 arch/arm/cpu/armv7/start.o

.got.plt        0x8086c884        0xc
 .got.plt       0x8086c884        0xc arch/arm/cpu/armv7/start.o
                0x8086c884                _GLOBAL_OFFSET_TABLE_

.igot.plt       0x8086c890        0x0
 .igot.plt      0x00000000        0x0 arch/arm/cpu/armv7/start.o
                0x8086c890                . = ALIGN (0x4)
                0x8086c890                . = .
                0x8086c890                . = ALIGN (0x4)

.u_boot_list    0x8086c890      0x960
 *(SORT(.u_boot_list*))
 .u_boot_list_2_cmd_1
                0x8086c890        0x0 common/libcommon.o
 .u_boot_list_2_cmd_2_askenv
                0x8086c890       0x1c common/libcommon.o
                0x8086c890                _u_boot_list_2_cmd_2_askenv
 .u_boot_list_2_cmd_2_base
                0x8086c8ac       0x1c common/libcommon.o
                0x8086c8ac                _u_boot_list_2_cmd_2_base
 .u_boot_list_2_cmd_2_bdinfo
                0x8086c8c8       0x1c common/libcommon.o
                0x8086c8c8                _u_boot_list_2_cmd_2_bdinfo
 .u_boot_list_2_cmd_2_boot
                0x8086c8e4       0x1c common/libcommon.o
                0x8086c8e4                _u_boot_list_2_cmd_2_boot
 .u_boot_list_2_cmd_2_bootd
                0x8086c900       0x1c common/libcommon.o
                0x8086c900                _u_boot_list_2_cmd_2_bootd
 .u_boot_list_2_cmd_2_bootm
                0x8086c91c       0x1c common/libcommon.o
                0x8086c91c                _u_boot_list_2_cmd_2_bootm
 .u_boot_list_2_cmd_2_bootp
                0x8086c938       0x1c common/libcommon.o
                0x8086c938                _u_boot_list_2_cmd_2_bootp
 .u_boot_list_2_cmd_2_bootz
                0x8086c954       0x1c common/libcommon.o
                0x8086c954                _u_boot_list_2_cmd_2_bootz
 .u_boot_list_2_cmd_2_chpart
                0x8086c970       0x1c common/libcommon.o
                0x8086c970                _u_boot_list_2_cmd_2_chpart
 .u_boot_list_2_cmd_2_cmp
                0x8086c98c       0x1c common/libcommon.o
                0x8086c98c                _u_boot_list_2_cmd_2_cmp
 .u_boot_list_2_cmd_2_coninfo
                0x8086c9a8       0x1c common/libcommon.o
                0x8086c9a8                _u_boot_list_2_cmd_2_coninfo
 .u_boot_list_2_cmd_2_cp
                0x8086c9c4       0x1c common/libcommon.o
                0x8086c9c4                _u_boot_list_2_cmd_2_cp
 .u_boot_list_2_cmd_2_crc32
                0x8086c9e0       0x1c common/libcommon.o
                0x8086c9e0                _u_boot_list_2_cmd_2_crc32
 .u_boot_list_2_cmd_2_dfu
                0x8086c9fc       0x1c common/libcommon.o
                0x8086c9fc                _u_boot_list_2_cmd_2_dfu
 .u_boot_list_2_cmd_2_dhcp
                0x8086ca18       0x1c common/libcommon.o
                0x8086ca18                _u_boot_list_2_cmd_2_dhcp
 .u_boot_list_2_cmd_2_echo
                0x8086ca34       0x1c common/libcommon.o
                0x8086ca34                _u_boot_list_2_cmd_2_echo
 .u_boot_list_2_cmd_2_editenv
                0x8086ca50       0x1c common/libcommon.o
                0x8086ca50                _u_boot_list_2_cmd_2_editenv
 .u_boot_list_2_cmd_2_eeprom
                0x8086ca6c       0x1c common/libcommon.o
                0x8086ca6c                _u_boot_list_2_cmd_2_eeprom
 .u_boot_list_2_cmd_2_env
                0x8086ca88       0x1c common/libcommon.o
                0x8086ca88                _u_boot_list_2_cmd_2_env
 .u_boot_list_2_cmd_2_exit
                0x8086caa4       0x1c common/libcommon.o
                0x8086caa4                _u_boot_list_2_cmd_2_exit
 .u_boot_list_2_cmd_2_ext2load
                0x8086cac0       0x1c common/libcommon.o
                0x8086cac0                _u_boot_list_2_cmd_2_ext2load
 .u_boot_list_2_cmd_2_ext2ls
                0x8086cadc       0x1c common/libcommon.o
                0x8086cadc                _u_boot_list_2_cmd_2_ext2ls
 .u_boot_list_2_cmd_2_ext4load
                0x8086caf8       0x1c common/libcommon.o
                0x8086caf8                _u_boot_list_2_cmd_2_ext4load
 .u_boot_list_2_cmd_2_ext4ls
                0x8086cb14       0x1c common/libcommon.o
                0x8086cb14                _u_boot_list_2_cmd_2_ext4ls
 .u_boot_list_2_cmd_2_false
                0x8086cb30       0x1c common/libcommon.o
                0x8086cb30                _u_boot_list_2_cmd_2_false
 .u_boot_list_2_cmd_2_fatinfo
                0x8086cb4c       0x1c common/libcommon.o
                0x8086cb4c                _u_boot_list_2_cmd_2_fatinfo
 .u_boot_list_2_cmd_2_fatload
                0x8086cb68       0x1c common/libcommon.o
                0x8086cb68                _u_boot_list_2_cmd_2_fatload
 .u_boot_list_2_cmd_2_fatls
                0x8086cb84       0x1c common/libcommon.o
                0x8086cb84                _u_boot_list_2_cmd_2_fatls
 .u_boot_list_2_cmd_2_fatwrite
                0x8086cba0       0x1c common/libcommon.o
                0x8086cba0                _u_boot_list_2_cmd_2_fatwrite
 .u_boot_list_2_cmd_2_fdt
                0x8086cbbc       0x1c common/libcommon.o
                0x8086cbbc                _u_boot_list_2_cmd_2_fdt
 .u_boot_list_2_cmd_2_go
                0x8086cbd8       0x1c common/libcommon.o
                0x8086cbd8                _u_boot_list_2_cmd_2_go
 .u_boot_list_2_cmd_2_gpio
                0x8086cbf4       0x1c common/libcommon.o
                0x8086cbf4                _u_boot_list_2_cmd_2_gpio
 .u_boot_list_2_cmd_2_gpt
                0x8086cc10       0x1c common/libcommon.o
                0x8086cc10                _u_boot_list_2_cmd_2_gpt
 .u_boot_list_2_cmd_2_help
                0x8086cc2c       0x1c common/libcommon.o
                0x8086cc2c                _u_boot_list_2_cmd_2_help
 .u_boot_list_2_cmd_2_i2c
                0x8086cc48       0x1c common/libcommon.o
                0x8086cc48                _u_boot_list_2_cmd_2_i2c
 .u_boot_list_2_cmd_2_iminfo
                0x8086cc64       0x1c common/libcommon.o
                0x8086cc64                _u_boot_list_2_cmd_2_iminfo
 .u_boot_list_2_cmd_2_imxtract
                0x8086cc80       0x1c common/libcommon.o
                0x8086cc80                _u_boot_list_2_cmd_2_imxtract
 .u_boot_list_2_cmd_2_itest
                0x8086cc9c       0x1c common/libcommon.o
                0x8086cc9c                _u_boot_list_2_cmd_2_itest
 .u_boot_list_2_cmd_2_lcd
                0x8086ccb8       0x1c common/libcommon.o
                0x8086ccb8                _u_boot_list_2_cmd_2_lcd
 .u_boot_list_2_cmd_2_load
                0x8086ccd4       0x1c common/libcommon.o
                0x8086ccd4                _u_boot_list_2_cmd_2_load
 .u_boot_list_2_cmd_2_loadb
                0x8086ccf0       0x1c common/libcommon.o
                0x8086ccf0                _u_boot_list_2_cmd_2_loadb
 .u_boot_list_2_cmd_2_loads
                0x8086cd0c       0x1c common/libcommon.o
                0x8086cd0c                _u_boot_list_2_cmd_2_loads
 .u_boot_list_2_cmd_2_loadx
                0x8086cd28       0x1c common/libcommon.o
                0x8086cd28                _u_boot_list_2_cmd_2_loadx
 .u_boot_list_2_cmd_2_loady
                0x8086cd44       0x1c common/libcommon.o
                0x8086cd44                _u_boot_list_2_cmd_2_loady
 .u_boot_list_2_cmd_2_loop
                0x8086cd60       0x1c common/libcommon.o
                0x8086cd60                _u_boot_list_2_cmd_2_loop
 .u_boot_list_2_cmd_2_ls
                0x8086cd7c       0x1c common/libcommon.o
                0x8086cd7c                _u_boot_list_2_cmd_2_ls
 .u_boot_list_2_cmd_2_md
                0x8086cd98       0x1c common/libcommon.o
                0x8086cd98                _u_boot_list_2_cmd_2_md
 .u_boot_list_2_cmd_2_mdio
                0x8086cdb4       0x1c common/libcommon.o
                0x8086cdb4                _u_boot_list_2_cmd_2_mdio
 .u_boot_list_2_cmd_2_mii
                0x8086cdd0       0x1c common/libcommon.o
                0x8086cdd0                _u_boot_list_2_cmd_2_mii
 .u_boot_list_2_cmd_2_mm
                0x8086cdec       0x1c common/libcommon.o
                0x8086cdec                _u_boot_list_2_cmd_2_mm
 .u_boot_list_2_cmd_2_mmc
                0x8086ce08       0x1c common/libcommon.o
                0x8086ce08                _u_boot_list_2_cmd_2_mmc
 .u_boot_list_2_cmd_2_mmcinfo
                0x8086ce24       0x1c common/libcommon.o
                0x8086ce24                _u_boot_list_2_cmd_2_mmcinfo
 .u_boot_list_2_cmd_2_mtdparts
                0x8086ce40       0x1c common/libcommon.o
                0x8086ce40                _u_boot_list_2_cmd_2_mtdparts
 .u_boot_list_2_cmd_2_mtest
                0x8086ce5c       0x1c common/libcommon.o
                0x8086ce5c                _u_boot_list_2_cmd_2_mtest
 .u_boot_list_2_cmd_2_mw
                0x8086ce78       0x1c common/libcommon.o
                0x8086ce78                _u_boot_list_2_cmd_2_mw
 .u_boot_list_2_cmd_2_nand
                0x8086ce94       0x1c common/libcommon.o
                0x8086ce94                _u_boot_list_2_cmd_2_nand
 .u_boot_list_2_cmd_2_nboot
                0x8086ceb0       0x1c common/libcommon.o
                0x8086ceb0                _u_boot_list_2_cmd_2_nboot
 .u_boot_list_2_cmd_2_nfs
                0x8086cecc       0x1c common/libcommon.o
                0x8086cecc                _u_boot_list_2_cmd_2_nfs
 .u_boot_list_2_cmd_2_nm
                0x8086cee8       0x1c common/libcommon.o
                0x8086cee8                _u_boot_list_2_cmd_2_nm
 .u_boot_list_2_cmd_2_part
                0x8086cf04       0x1c common/libcommon.o
                0x8086cf04                _u_boot_list_2_cmd_2_part
 .u_boot_list_2_cmd_2_ping
                0x8086cf20       0x1c common/libcommon.o
                0x8086cf20                _u_boot_list_2_cmd_2_ping
 .u_boot_list_2_cmd_2_printenv
                0x8086cf3c       0x1c common/libcommon.o
                0x8086cf3c                _u_boot_list_2_cmd_2_printenv
 .u_boot_list_2_cmd_2_question_mark
                0x8086cf58       0x1c common/libcommon.o
                0x8086cf58                _u_boot_list_2_cmd_2_question_mark
 .u_boot_list_2_cmd_2_reset
                0x8086cf74       0x1c common/libcommon.o
                0x8086cf74                _u_boot_list_2_cmd_2_reset
 .u_boot_list_2_cmd_2_run
                0x8086cf90       0x1c common/libcommon.o
                0x8086cf90                _u_boot_list_2_cmd_2_run
 .u_boot_list_2_cmd_2_saveenv
                0x8086cfac       0x1c common/libcommon.o
                0x8086cfac                _u_boot_list_2_cmd_2_saveenv
 .u_boot_list_2_cmd_2_setenv
                0x8086cfc8       0x1c common/libcommon.o
                0x8086cfc8                _u_boot_list_2_cmd_2_setenv
 .u_boot_list_2_cmd_2_sf
                0x8086cfe4       0x1c common/libcommon.o
                0x8086cfe4                _u_boot_list_2_cmd_2_sf
 .u_boot_list_2_cmd_2_showvar
                0x8086d000       0x1c common/libcommon.o
                0x8086d000                _u_boot_list_2_cmd_2_showvar
 .u_boot_list_2_cmd_2_sleep
                0x8086d01c       0x1c common/libcommon.o
                0x8086d01c                _u_boot_list_2_cmd_2_sleep
 .u_boot_list_2_cmd_2_source
                0x8086d038       0x1c common/libcommon.o
                0x8086d038                _u_boot_list_2_cmd_2_source
 .u_boot_list_2_cmd_2_spl
                0x8086d054       0x1c common/libcommon.o
                0x8086d054                _u_boot_list_2_cmd_2_spl
 .u_boot_list_2_cmd_2_sspi
                0x8086d070       0x1c common/libcommon.o
                0x8086d070                _u_boot_list_2_cmd_2_sspi
 .u_boot_list_2_cmd_2_test
                0x8086d08c       0x1c common/libcommon.o
                0x8086d08c                _u_boot_list_2_cmd_2_test
 .u_boot_list_2_cmd_2_tftpboot
                0x8086d0a8       0x1c common/libcommon.o
                0x8086d0a8                _u_boot_list_2_cmd_2_tftpboot
 .u_boot_list_2_cmd_2_true
                0x8086d0c4       0x1c common/libcommon.o
                0x8086d0c4                _u_boot_list_2_cmd_2_true
 .u_boot_list_2_cmd_2_ubi
                0x8086d0e0       0x1c common/libcommon.o
                0x8086d0e0                _u_boot_list_2_cmd_2_ubi
 .u_boot_list_2_cmd_2_ubifsload
                0x8086d0fc       0x1c common/libcommon.o
                0x8086d0fc                _u_boot_list_2_cmd_2_ubifsload
 .u_boot_list_2_cmd_2_ubifsls
                0x8086d118       0x1c common/libcommon.o
                0x8086d118                _u_boot_list_2_cmd_2_ubifsls
 .u_boot_list_2_cmd_2_ubifsmount
                0x8086d134       0x1c common/libcommon.o
                0x8086d134                _u_boot_list_2_cmd_2_ubifsmount
 .u_boot_list_2_cmd_2_ubifsumount
                0x8086d150       0x1c common/libcommon.o
                0x8086d150                _u_boot_list_2_cmd_2_ubifsumount
 .u_boot_list_2_cmd_2_usb
                0x8086d16c       0x1c common/libcommon.o
                0x8086d16c                _u_boot_list_2_cmd_2_usb
 .u_boot_list_2_cmd_2_usbboot
                0x8086d188       0x1c common/libcommon.o
                0x8086d188                _u_boot_list_2_cmd_2_usbboot
 .u_boot_list_2_cmd_2_version
                0x8086d1a4       0x1c common/libcommon.o
                0x8086d1a4                _u_boot_list_2_cmd_2_version
 .u_boot_list_2_cmd_3
                0x8086d1c0        0x0 common/libcommon.o
 .u_boot_list_2_env_clbk_1
                0x8086d1c0        0x0 common/libcommon.o
 .u_boot_list_2_env_clbk_2_baudrate
                0x8086d1c0        0x8 drivers/serial/libserial.o
                0x8086d1c0                _u_boot_list_2_env_clbk_2_baudrate
 .u_boot_list_2_env_clbk_2_bootfile
                0x8086d1c8        0x8 net/libnet.o
                0x8086d1c8                _u_boot_list_2_env_clbk_2_bootfile
 .u_boot_list_2_env_clbk_2_callbacks
                0x8086d1d0        0x8 common/libcommon.o
                0x8086d1d0                _u_boot_list_2_env_clbk_2_callbacks
 .u_boot_list_2_env_clbk_2_console
                0x8086d1d8        0x8 common/libcommon.o
                0x8086d1d8                _u_boot_list_2_env_clbk_2_console
 .u_boot_list_2_env_clbk_2_flags
                0x8086d1e0        0x8 common/libcommon.o
                0x8086d1e0                _u_boot_list_2_env_clbk_2_flags
 .u_boot_list_2_env_clbk_2_loadaddr
                0x8086d1e8        0x8 common/libcommon.o
                0x8086d1e8                _u_boot_list_2_env_clbk_2_loadaddr
 .u_boot_list_2_env_clbk_3
                0x8086d1f0        0x0 common/libcommon.o
                0x8086d1f0                . = ALIGN (0x4)

.image_copy_end
                0x8086d1f0        0x0
 *(.__image_copy_end)
 .__image_copy_end
                0x8086d1f0        0x0 arch/arm/lib/libarm.o

.rel_dyn_start  0x8086d1f0        0x0
 *(.__rel_dyn_start)
 .__rel_dyn_start
                0x8086d1f0        0x0 arch/arm/lib/libarm.o

.rel.dyn        0x8086d1f0     0xa308
 *(.rel*)
 .rel.got       0x00000000        0x0 arch/arm/cpu/armv7/start.o
 .rel.plt       0x00000000        0x0 arch/arm/cpu/armv7/start.o
 .rel.iplt      0x00000000        0x0 arch/arm/cpu/armv7/start.o
 .rel.text      0x8086d1f0       0x78 arch/arm/cpu/armv7/start.o
 .rel.text.board_late_init
                0x8086d268       0x78 arch/arm/cpu/armv7/start.o
 .rel.text.board_eth_init
                0x8086d2e0       0x10 arch/arm/cpu/armv7/start.o
 .rel.text.do_setup_dpll
                0x00000000        0x0 arch/arm/cpu/armv7/start.o
 .rel.text.do_enable_clocks
                0x00000000        0x0 arch/arm/cpu/armv7/start.o
 .rel.text.prcm_init
                0x00000000        0x0 arch/arm/cpu/armv7/start.o
 .rel.text.get_device_type
                0x00000000        0x0 arch/arm/cpu/armv7/start.o
 .rel.text.get_sysboot_value
                0x00000000        0x0 arch/arm/cpu/armv7/start.o
 .rel.text.arch_misc_init
                0x8086d2f0       0x20 arch/arm/cpu/armv7/start.o
 .rel.text.config_sdram
                0x00000000        0x0 arch/arm/cpu/armv7/start.o
 .rel.text.set_sdram_timings
                0x00000000        0x0 arch/arm/cpu/armv7/start.o
 .rel.text.config_ddr_phy
                0x00000000        0x0 arch/arm/cpu/armv7/start.o
 .rel.text.config_cmd_ctrl
                0x00000000        0x0 arch/arm/cpu/armv7/start.o
 .rel.text.config_ddr_data
                0x00000000        0x0 arch/arm/cpu/armv7/start.o
 .rel.text.get_dpll_mpu_params
                0x00000000        0x0 arch/arm/cpu/armv7/start.o
 .rel.text.get_dpll_core_params
                0x00000000        0x0 arch/arm/cpu/armv7/start.o
 .rel.text.get_dpll_per_params
                0x00000000        0x0 arch/arm/cpu/armv7/start.o
 .rel.text.enable_basic_clocks
                0x00000000        0x0 arch/arm/cpu/armv7/start.o
 .rel.rodata.omap_gpio_bank
                0x8086d310        0x8 arch/arm/cpu/armv7/start.o
 .rel.data.otg1_board_data
                0x8086d318        0x8 arch/arm/cpu/armv7/start.o
 .rel.data.otg1_plat
                0x8086d320       0x18 arch/arm/cpu/armv7/start.o
 .rel.data.otg0_board_data
                0x8086d338        0x8 arch/arm/cpu/armv7/start.o
 .rel.data.otg0_plat
                0x8086d340       0x18 arch/arm/cpu/armv7/start.o
 .rel.text.invalidate_dcache_range
                0x00000000        0x0 arch/arm/cpu/armv7/start.o
 .rel.text.gpmc_init
                0x8086d358       0x10 arch/arm/cpu/armv7/start.o
 .rel.text.init_func_i2c
                0x8086d368       0x10 arch/arm/cpu/armv7/start.o
 .rel.text.display_banner
                0x8086d378       0x10 arch/arm/cpu/armv7/start.o
 .rel.text.init_baudrate
                0x8086d388        0x8 arch/arm/cpu/armv7/start.o
 .rel.text.board_init_f
                0x8086d390       0x30 arch/arm/cpu/armv7/start.o
 .rel.text.board_init_r
                0x8086d3c0       0x38 arch/arm/cpu/armv7/start.o
 .rel.text.boot_jump_linux
                0x8086d3f8       0x28 arch/arm/cpu/armv7/start.o
 .rel.text.boot_prep_linux
                0x8086d420       0x18 arch/arm/cpu/armv7/start.o
 .rel.text.bootz_setup
                0x8086d438       0x10 arch/arm/cpu/armv7/start.o
 .rel.text.interrupt_init
                0x8086d448        0x8 arch/arm/cpu/armv7/start.o
 .rel.text.bad_mode
                0x8086d450        0x8 arch/arm/cpu/armv7/start.o
 .rel.text.show_regs
                0x8086d458       0x50 arch/arm/cpu/armv7/start.o
 .rel.text.do_undefined_instruction
                0x8086d4a8        0x8 arch/arm/cpu/armv7/start.o
 .rel.text.do_software_interrupt
                0x8086d4b0        0x8 arch/arm/cpu/armv7/start.o
 .rel.text.do_prefetch_abort
                0x8086d4b8        0x8 arch/arm/cpu/armv7/start.o
 .rel.text.do_data_abort
                0x8086d4c0        0x8 arch/arm/cpu/armv7/start.o
 .rel.text.do_not_used
                0x8086d4c8        0x8 arch/arm/cpu/armv7/start.o
 .rel.text.do_fiq
                0x8086d4d0        0x8 arch/arm/cpu/armv7/start.o
 .rel.text.do_irq
                0x8086d4d8        0x8 arch/arm/cpu/armv7/start.o
 .rel.text.do_reset
                0x8086d4e0        0x8 arch/arm/cpu/armv7/start.o
 .rel.text.__enable_caches
                0x00000000        0x0 arch/arm/cpu/armv7/start.o
 .rel.rodata    0x8086d4e8      0x150 arch/arm/cpu/armv7/start.o
 .rel.data.init_sequence
                0x8086d638       0x50 arch/arm/cpu/armv7/start.o
 .rel.text.print_num
                0x8086d688        0x8 arch/arm/cpu/armv7/start.o
 .rel.text.do_bdinfo
                0x8086d690       0x98 arch/arm/cpu/armv7/start.o
 .rel.text.do_go
                0x8086d728       0x10 arch/arm/cpu/armv7/start.o
 .rel.text.image_info
                0x8086d738       0x40 arch/arm/cpu/armv7/start.o
 .rel.text.do_bootd
                0x8086d778        0x8 arch/arm/cpu/armv7/start.o
 .rel.text.do_bootm_rtems
                0x8086d780        0x8 arch/arm/cpu/armv7/start.o
 .rel.text.do_bootm_plan9
                0x8086d788       0x18 arch/arm/cpu/armv7/start.o
 .rel.text.do_bootm_netbsd
                0x8086d7a0       0x18 arch/arm/cpu/armv7/start.o
 .rel.text.do_iminfo
                0x8086d7b8        0x8 arch/arm/cpu/armv7/start.o
 .rel.text.bootm_find_ramdisk.isra.17
                0x8086d7c0       0x10 arch/arm/cpu/armv7/start.o
 .rel.text.bootm_find_fdt
                0x8086d7d0       0x10 arch/arm/cpu/armv7/start.o
 .rel.text.do_bootm_states.isra.20.constprop.22
                0x8086d7e0      0x110 arch/arm/cpu/armv7/start.o
 .rel.text.do_bootm
                0x8086d8f0       0x18 arch/arm/cpu/armv7/start.o
 .rel.text.bootm_maybe_autostart
                0x8086d908       0x20 arch/arm/cpu/armv7/start.o
 .rel.text.do_bootz
                0x8086d928       0x10 arch/arm/cpu/armv7/start.o
 .rel.text.do_coninfo
                0x8086d938       0x28 arch/arm/cpu/armv7/start.o
 .rel.text.do_dfu
                0x8086d960       0x18 arch/arm/cpu/armv7/start.o
 .rel.text.common_diskboot
                0x8086d978       0x28 arch/arm/cpu/armv7/start.o
 .rel.text.do_echo
                0x8086d9a0        0x8 arch/arm/cpu/armv7/start.o
 .rel.text.do_eeprom
                0x8086d9a8       0x20 arch/arm/cpu/armv7/start.o
 .rel.text.do_fat_fsinfo
                0x8086d9c8       0x10 arch/arm/cpu/armv7/start.o
 .rel.text.do_fat_fswrite
                0x8086d9d8       0x18 arch/arm/cpu/armv7/start.o
 .rel.text.fdt_valid
                0x8086d9f0       0x28 arch/arm/cpu/armv7/start.o
 .rel.text.is_printable_string
                0x8086da18        0x8 arch/arm/cpu/armv7/start.o
 .rel.text.print_data
                0x8086da20       0x58 arch/arm/cpu/armv7/start.o
 .rel.text.set_working_fdt_addr
                0x8086da78       0x10 arch/arm/cpu/armv7/start.o
 .rel.text.do_fdt
                0x8086da88      0x238 arch/arm/cpu/armv7/start.o
 .rel.text.do_gpio
                0x8086dcc0       0x18 arch/arm/cpu/armv7/start.o
 .rel.text.extract_val
                0x8086dcd8       0x10 arch/arm/cpu/armv7/start.o
 .rel.text.extract_env
                0x8086dce8       0x10 arch/arm/cpu/armv7/start.o
 .rel.text.do_gpt
                0x8086dcf8       0x78 arch/arm/cpu/armv7/start.o
 .rel.text.do_help
                0x8086dd70       0x10 arch/arm/cpu/armv7/start.o
 .rel.text.do_i2c
                0x8086dd80        0x8 arch/arm/cpu/armv7/start.o
 .rel.text.do_i2c_mw
                0x8086dd88        0x8 arch/arm/cpu/armv7/start.o
 .rel.text.do_i2c_read
                0x8086dd90        0x8 arch/arm/cpu/armv7/start.o
 .rel.text.do_i2c_probe
                0x8086dd98       0x10 arch/arm/cpu/armv7/start.o
 .rel.text.do_i2c_md
                0x8086dda8       0x50 arch/arm/cpu/armv7/start.o
 .rel.text.do_i2c_crc
                0x8086ddf8       0x18 arch/arm/cpu/armv7/start.o
 .rel.text.do_i2c_bus_num
                0x8086de10       0x18 arch/arm/cpu/armv7/start.o
 .rel.text.do_i2c_write
                0x8086de28        0x8 arch/arm/cpu/armv7/start.o
 .rel.text.do_i2c_loop
                0x8086de30        0x8 arch/arm/cpu/armv7/start.o
 .rel.text.mod_i2c_mem.isra.3
                0x8086de38       0x58 arch/arm/cpu/armv7/start.o
 .rel.text.do_i2c_bus_speed
                0x8086de90       0x18 arch/arm/cpu/armv7/start.o
 .rel.text.binary_test
                0x8086dea8       0x70 arch/arm/cpu/armv7/start.o
 .rel.text.do_itest
                0x8086df18       0x40 arch/arm/cpu/armv7/start.o
 .rel.text.do_lcd
                0x8086df58       0x30 arch/arm/cpu/armv7/start.o
 .rel.text.bin_data_init
                0x8086df88       0x18 arch/arm/cpu/armv7/start.o
 .rel.text.k_data_save
                0x8086dfa0       0x30 arch/arm/cpu/armv7/start.o
 .rel.text.k_data_restore
                0x8086dfd0       0x30 arch/arm/cpu/armv7/start.o
 .rel.text.load_serial_ymodem
                0x8086e000       0x20 arch/arm/cpu/armv7/start.o
 .rel.text.bin_data_char
                0x8086e020       0x10 arch/arm/cpu/armv7/start.o
 .rel.text.chk1.constprop.1
                0x8086e030        0x8 arch/arm/cpu/armv7/start.o
 .rel.text.s1_sendpacket.constprop.2
                0x8086e038       0x18 arch/arm/cpu/armv7/start.o
 .rel.text.load_serial
                0x8086e050       0x68 arch/arm/cpu/armv7/start.o
 .rel.text.do_load_serial
                0x8086e0b8       0x30 arch/arm/cpu/armv7/start.o
 .rel.text.do_load_serial_bin
                0x8086e0e8       0xe8 arch/arm/cpu/armv7/start.o
 .rel.text.do_mdio
                0x8086e1d0       0x68 arch/arm/cpu/armv7/start.o
 .rel.text.do_mem_mw
                0x8086e238        0x8 arch/arm/cpu/armv7/start.o
 .rel.text.do_mem_md
                0x8086e240       0x20 arch/arm/cpu/armv7/start.o
 .rel.text.do_mem_cmp
                0x8086e260       0x30 arch/arm/cpu/armv7/start.o
 .rel.text.do_mem_base
                0x8086e290       0x10 arch/arm/cpu/armv7/start.o
 .rel.text.do_mem_cp
                0x8086e2a0       0x10 arch/arm/cpu/armv7/start.o
 .rel.text.do_mem_crc
                0x8086e2b0        0x8 arch/arm/cpu/armv7/start.o
 .rel.text.mod_mem.isra.2
                0x8086e2b8       0x48 arch/arm/cpu/armv7/start.o
 .rel.text.do_mem_mtest
                0x8086e300       0x50 arch/arm/cpu/armv7/start.o
 .rel.text.do_mii
                0x8086e350      0x130 arch/arm/cpu/armv7/start.o
 .rel.text.do_mmcops
                0x8086e480       0xa8 arch/arm/cpu/armv7/start.o
 .rel.text.do_mmcinfo
                0x8086e528       0x90 arch/arm/cpu/armv7/start.o
 .rel.text.get_mtd_info
                0x8086e5b8       0x28 arch/arm/cpu/armv7/start.o
 .rel.text.part_validate
                0x8086e5e0       0x48 arch/arm/cpu/armv7/start.o
 .rel.text.mtd_part_info
                0x8086e628       0x20 arch/arm/cpu/armv7/start.o
 .rel.text.memsize_format
                0x8086e648       0x20 arch/arm/cpu/armv7/start.o
 .rel.text.index_partitions
                0x8086e668       0x28 arch/arm/cpu/armv7/start.o
 .rel.text.current_save
                0x8086e690       0x40 arch/arm/cpu/armv7/start.o
 .rel.text.part_sort_add
                0x8086e6d0       0x18 arch/arm/cpu/armv7/start.o
 .rel.text.device_del
                0x8086e6e8       0x18 arch/arm/cpu/armv7/start.o
 .rel.text.generate_mtdparts_save.constprop.7
                0x8086e700       0x28 arch/arm/cpu/armv7/start.o
 .rel.text.device_delall.constprop.9
                0x8086e728        0x8 arch/arm/cpu/armv7/start.o
 .rel.text.mtd_devices_init
                0x8086e730       0x10 arch/arm/cpu/armv7/start.o
 .rel.text.device_find
                0x8086e740        0x8 arch/arm/cpu/armv7/start.o
 .rel.text.device_parse
                0x8086e748       0x80 arch/arm/cpu/armv7/start.o
 .rel.text.mtd_id_parse
                0x8086e7c8       0x30 arch/arm/cpu/armv7/start.o
 .rel.text.find_dev_and_part
                0x8086e7f8       0x40 arch/arm/cpu/armv7/start.o
 .rel.text.mtdparts_init
                0x8086e838       0xd8 arch/arm/cpu/armv7/start.o
 .rel.text.do_chpart
                0x8086e910       0x38 arch/arm/cpu/armv7/start.o
 .rel.text.do_mtdparts
                0x8086e948      0x108 arch/arm/cpu/armv7/start.o
 .rel.text.set_dev
                0x8086ea50       0x28 arch/arm/cpu/armv7/start.o
 .rel.text.nand_print_and_set_info
                0x8086ea78       0x50 arch/arm/cpu/armv7/start.o
 .rel.text.arg_off
                0x8086eac8       0x18 arch/arm/cpu/armv7/start.o
 .rel.text.arg_off_size
                0x8086eae0       0x30 arch/arm/cpu/armv7/start.o
 .rel.text.do_nand
                0x8086eb10      0x198 arch/arm/cpu/armv7/start.o
 .rel.text.nand_load_image
                0x8086eca8       0x40 arch/arm/cpu/armv7/start.o
 .rel.text.do_nandboot
                0x8086ece8       0x48 arch/arm/cpu/armv7/start.o
 .rel.text.netboot_common
                0x8086ed30       0xa8 arch/arm/cpu/armv7/start.o
 .rel.text.do_ping
                0x8086edd8       0x18 arch/arm/cpu/armv7/start.o
 .rel.text.do_env_delete
                0x8086edf0       0x10 arch/arm/cpu/armv7/start.o
 .rel.text.do_env_save
                0x8086ee00       0x10 arch/arm/cpu/armv7/start.o
 .rel.text.do_env
                0x8086ee10        0x8 arch/arm/cpu/armv7/start.o
 .rel.text.env_print
                0x8086ee18       0x18 arch/arm/cpu/armv7/start.o
 .rel.text.do_env_print
                0x8086ee30       0x10 arch/arm/cpu/armv7/start.o
 .rel.text.do_env_import
                0x8086ee40       0x50 arch/arm/cpu/armv7/start.o
 .rel.text.do_env_default
                0x8086ee90        0x8 arch/arm/cpu/armv7/start.o
 .rel.text._do_env_set.isra.0
                0x8086ee98       0x30 arch/arm/cpu/armv7/start.o
 .rel.text.do_env_ask
                0x8086eec8       0x10 arch/arm/cpu/armv7/start.o
 .rel.text.get_env_id
                0x8086eed8        0x8 arch/arm/cpu/armv7/start.o
 .rel.text.setenv
                0x8086eee0        0x8 arch/arm/cpu/armv7/start.o
 .rel.text.setenv_hex
                0x8086eee8        0x8 arch/arm/cpu/armv7/start.o
 .rel.text.do_env_export
                0x8086eef0       0x40 arch/arm/cpu/armv7/start.o
 .rel.text.getenv_f
                0x8086ef30        0x8 arch/arm/cpu/armv7/start.o
 .rel.text.getenv
                0x8086ef38        0x8 arch/arm/cpu/armv7/start.o
 .rel.text.do_env_edit
                0x8086ef40       0x10 arch/arm/cpu/armv7/start.o
 .rel.text.do_part_uuid
                0x8086ef50        0x8 arch/arm/cpu/armv7/start.o
 .rel.text.do_part
                0x8086ef58       0x10 arch/arm/cpu/armv7/start.o
 .rel.text.do_spi_flash
                0x8086ef68       0xa8 arch/arm/cpu/armv7/start.o
 .rel.text.source
                0x8086f010       0x38 arch/arm/cpu/armv7/start.o
 .rel.text.do_source
                0x8086f048        0x8 arch/arm/cpu/armv7/start.o
 .rel.text.do_spi
                0x8086f050       0x60 arch/arm/cpu/armv7/start.o
 .rel.text.do_spl
                0x8086f0b0       0x48 arch/arm/cpu/armv7/start.o
 .rel.text.do_test
                0x8086f0f8       0x78 arch/arm/cpu/armv7/start.o
 .rel.text.ubi_find_volume
                0x8086f170       0x10 arch/arm/cpu/armv7/start.o
 .rel.text.ubi_volume_continue_write
                0x8086f180       0x20 arch/arm/cpu/armv7/start.o
 .rel.text.ubi_volume_begin_write
                0x8086f1a0       0x18 arch/arm/cpu/armv7/start.o
 .rel.text.ubi_volume_read
                0x8086f1b8       0x38 arch/arm/cpu/armv7/start.o
 .rel.text.ubi_part
                0x8086f1f0       0x78 arch/arm/cpu/armv7/start.o
 .rel.text.do_ubi
                0x8086f268      0x200 arch/arm/cpu/armv7/start.o
 .rel.text.do_ubifs_mount
                0x8086f468       0x10 arch/arm/cpu/armv7/start.o
 .rel.text.do_ubifs_ls
                0x8086f478       0x20 arch/arm/cpu/armv7/start.o
 .rel.text.do_ubifs_load
                0x8086f498       0x18 arch/arm/cpu/armv7/start.o
 .rel.text.ubifs_is_mounted
                0x8086f4b0        0x8 arch/arm/cpu/armv7/start.o
 .rel.text.cmd_ubifs_umount
                0x8086f4b8       0x20 arch/arm/cpu/armv7/start.o
 .rel.text.do_ubifs_umount
                0x8086f4d8       0x10 arch/arm/cpu/armv7/start.o
 .rel.text.usb_get_class_desc
                0x8086f4e8       0x50 arch/arm/cpu/armv7/start.o
 .rel.text.usb_display_class_sub
                0x8086f538       0xc8 arch/arm/cpu/armv7/start.o
 .rel.text.usb_show_tree_graph
                0x8086f600       0x48 arch/arm/cpu/armv7/start.o
 .rel.text.usb_display_string
                0x8086f648        0x8 arch/arm/cpu/armv7/start.o
 .rel.text.usb_display_config
                0x8086f650       0xa8 arch/arm/cpu/armv7/start.o
 .rel.text.do_usbboot
                0x8086f6f8        0x8 arch/arm/cpu/armv7/start.o
 .rel.text.usb_display_desc.part.1
                0x8086f700       0x38 arch/arm/cpu/armv7/start.o
 .rel.text.do_usb
                0x8086f738      0x160 arch/arm/cpu/armv7/start.o
 .rel.text.do_version
                0x8086f898       0x20 arch/arm/cpu/armv7/start.o
 .rel.text.do_imgextract
                0x8086f8b8       0x90 arch/arm/cpu/armv7/start.o
 .rel.text.find_cmd
                0x8086f948       0x10 arch/arm/cpu/armv7/start.o
 .rel.text.cmd_usage
                0x8086f958       0x18 arch/arm/cpu/armv7/start.o
 .rel.text._do_help
                0x8086f970       0x10 arch/arm/cpu/armv7/start.o
 .rel.text.var_complete
                0x8086f980       0x10 arch/arm/cpu/armv7/start.o
 .rel.text.cmd_auto_complete
                0x8086f990       0x48 arch/arm/cpu/armv7/start.o
 .rel.text.cmd_get_data_size
                0x8086f9d8        0x8 arch/arm/cpu/armv7/start.o
 .rel.text.cmd_process
                0x8086f9e0       0x18 arch/arm/cpu/armv7/start.o
 .rel.text.console_setfile
                0x8086f9f8       0x10 arch/arm/cpu/armv7/start.o
 .rel.text.fgetc
                0x8086fa08        0x8 arch/arm/cpu/armv7/start.o
 .rel.text.ftstc
                0x8086fa10        0x8 arch/arm/cpu/armv7/start.o
 .rel.text.fputc
                0x00000000        0x0 arch/arm/cpu/armv7/start.o
 .rel.text.fputs
                0x00000000        0x0 arch/arm/cpu/armv7/start.o
 .rel.text.putc
                0x8086fa18        0x8 arch/arm/cpu/armv7/start.o
 .rel.text.puts
                0x8086fa20        0x8 arch/arm/cpu/armv7/start.o
 .rel.text.ctrlc
                0x8086fa28       0x10 arch/arm/cpu/armv7/start.o
 .rel.text.disable_ctrlc
                0x00000000        0x0 arch/arm/cpu/armv7/start.o
 .rel.text.had_ctrlc
                0x8086fa38        0x8 arch/arm/cpu/armv7/start.o
 .rel.text.clear_ctrlc
                0x8086fa40        0x8 arch/arm/cpu/armv7/start.o
 .rel.text.on_console
                0x8086fa48       0x20 arch/arm/cpu/armv7/start.o
 .rel.text.stdio_print_current_devices
                0x00000000        0x0 arch/arm/cpu/armv7/start.o
 .rel.text.console_init_r
                0x8086fa68       0x10 arch/arm/cpu/armv7/start.o
 .rel.text.sbrk
                0x8086fa78       0x18 arch/arm/cpu/armv7/start.o
 .rel.text.mem_malloc_init
                0x8086fa90       0x18 arch/arm/cpu/armv7/start.o
 .rel.text.malloc_trim
                0x8086faa8       0x18 arch/arm/cpu/armv7/start.o
 .rel.text.free
                0x8086fac0       0x18 arch/arm/cpu/armv7/start.o
 .rel.text.malloc
                0x8086fad8       0x40 arch/arm/cpu/armv7/start.o
 .rel.text.calloc
                0x8086fb18        0x8 arch/arm/cpu/armv7/start.o
 .rel.text.realloc
                0x8086fb20        0x8 arch/arm/cpu/armv7/start.o
 .rel.text.mallopt
                0x00000000        0x0 arch/arm/cpu/armv7/start.o
 .rel.text.env_attr_lookup
                0x8086fb28        0x8 arch/arm/cpu/armv7/start.o
 .rel.text.find_env_callback
                0x8086fb30       0x10 arch/arm/cpu/armv7/start.o
 .rel.text.on_callbacks
                0x8086fb40       0x20 arch/arm/cpu/armv7/start.o
 .rel.text.set_callback
                0x8086fb60        0x8 arch/arm/cpu/armv7/start.o
 .rel.text.env_callback_init
                0x8086fb68       0x10 arch/arm/cpu/armv7/start.o
 .rel.text.env_get_addr
                0x8086fb78        0x8 arch/arm/cpu/armv7/start.o
 .rel.text.env_get_char
                0x8086fb80        0x8 arch/arm/cpu/armv7/start.o
 .rel.text.set_default_env
                0x8086fb88       0x40 arch/arm/cpu/armv7/start.o
 .rel.text.set_default_vars
                0x8086fbc8       0x10 arch/arm/cpu/armv7/start.o
 .rel.text.env_import
                0x8086fbd8       0x38 arch/arm/cpu/armv7/start.o
 .rel.text.env_relocate
                0x8086fc10        0x8 arch/arm/cpu/armv7/start.o
 .rel.text.env_complete
                0x8086fc18       0x18 arch/arm/cpu/armv7/start.o
 .rel.text.skip_num
                0x8086fc30        0x8 arch/arm/cpu/armv7/start.o
 .rel.text.on_flags
                0x8086fc38       0x20 arch/arm/cpu/armv7/start.o
 .rel.text.env_flags_parse_vartype
                0x8086fc58       0x10 arch/arm/cpu/armv7/start.o
 .rel.text.env_flags_parse_varaccess
                0x8086fc68       0x10 arch/arm/cpu/armv7/start.o
 .rel.text.set_flags
                0x8086fc78       0x10 arch/arm/cpu/armv7/start.o
 .rel.text.env_flags_init
                0x8086fc88       0x20 arch/arm/cpu/armv7/start.o
 .rel.text.env_flags_validate
                0x8086fca8       0x68 arch/arm/cpu/armv7/start.o
 .rel.text.env_init
                0x8086fd10        0x8 arch/arm/cpu/armv7/start.o
 .rel.text.writeenv
                0x8086fd18        0x8 arch/arm/cpu/armv7/start.o
 .rel.text.erase_and_write_env
                0x8086fd20       0x28 arch/arm/cpu/armv7/start.o
 .rel.text.saveenv
                0x8086fd48       0x40 arch/arm/cpu/armv7/start.o
 .rel.text.readenv
                0x8086fd88        0x8 arch/arm/cpu/armv7/start.o
 .rel.text.env_relocate_spec
                0x8086fd90       0x38 arch/arm/cpu/armv7/start.o
 .rel.text.jumptable_init
                0x8086fdc8       0xd8 arch/arm/cpu/armv7/start.o
 .rel.text.of_bus_default_count_cells
                0x00000000        0x0 arch/arm/cpu/armv7/start.o
 .rel.text.fdt_initrd
                0x8086fea0       0x30 arch/arm/cpu/armv7/start.o
 .rel.text.fdt_chosen
                0x8086fed0       0x30 arch/arm/cpu/armv7/start.o
 .rel.text.do_fixup_by_path
                0x8086ff00        0x8 arch/arm/cpu/armv7/start.o
 .rel.text.fdt_fixup_memory_banks
                0x8086ff08       0x58 arch/arm/cpu/armv7/start.o
 .rel.text.fdt_fixup_ethernet
                0x8086ff60       0x38 arch/arm/cpu/armv7/start.o
 .rel.text.fdt_del_node_and_alias
                0x00000000        0x0 arch/arm/cpu/armv7/start.o
 .rel.text.fdt_translate_address
                0x00000000        0x0 arch/arm/cpu/armv7/start.o
 .rel.text.fdt_node_offset_by_compat_reg
                0x00000000        0x0 arch/arm/cpu/armv7/start.o
 .rel.text.fdt_set_phandle
                0x00000000        0x0 arch/arm/cpu/armv7/start.o
 .rel.text.fdt_create_phandle
                0x00000000        0x0 arch/arm/cpu/armv7/start.o
 .rel.text.fdt_set_node_status
                0x00000000        0x0 arch/arm/cpu/armv7/start.o
 .rel.text.fdt_verify_alias_address
                0x00000000        0x0 arch/arm/cpu/armv7/start.o
 .rel.text.fdt_get_base_address
                0x00000000        0x0 arch/arm/cpu/armv7/start.o
 .rel.text.hash_block
                0x00000000        0x0 arch/arm/cpu/armv7/start.o
 .rel.text.hash_command
                0x8086ff98        0x8 arch/arm/cpu/armv7/start.o
 .rel.text.mapset
                0x8086ffa0        0x8 arch/arm/cpu/armv7/start.o
 .rel.text.syntax_err
                0x8086ffa8        0x8 arch/arm/cpu/armv7/start.o
 .rel.text.xmalloc
                0x8086ffb0        0x8 arch/arm/cpu/armv7/start.o
 .rel.text.xrealloc
                0x8086ffb8        0x8 arch/arm/cpu/armv7/start.o
 .rel.text.done_word
                0x8086ffc0        0x8 arch/arm/cpu/armv7/start.o
 .rel.text.do_showvar
                0x8086ffc8       0x20 arch/arm/cpu/armv7/start.o
 .rel.text.is_assignment
                0x8086ffe8        0x8 arch/arm/cpu/armv7/start.o
 .rel.text.file_get
                0x8086fff0       0x30 arch/arm/cpu/armv7/start.o
 .rel.text.b_addqchr
                0x80870020        0x8 arch/arm/cpu/armv7/start.o
 .rel.text.get_local_var
                0x80870028       0x20 arch/arm/cpu/armv7/start.o
 .rel.text.set_local_var
                0x80870048       0x20 arch/arm/cpu/armv7/start.o
 .rel.text.insert_var_value_sub
                0x80870068        0x8 arch/arm/cpu/armv7/start.o
 .rel.text.unset_local_var
                0x00000000        0x0 arch/arm/cpu/armv7/start.o
 .rel.text.parse_string_outer
                0x80870070       0x18 arch/arm/cpu/armv7/start.o
 .rel.text.run_list_real
                0x80870088       0x38 arch/arm/cpu/armv7/start.o
 .rel.text.parse_stream_outer
                0x808700c0       0x60 arch/arm/cpu/armv7/start.o
 .rel.text.parse_file_outer
                0x80870120       0x10 arch/arm/cpu/armv7/start.o
 .rel.text.u_boot_hush_start
                0x80870130       0x18 arch/arm/cpu/armv7/start.o
 .rel.text.fdt_error
                0x80870148       0x10 arch/arm/cpu/armv7/start.o
 .rel.text.boot_fdt_add_mem_rsv_regions
                0x80870158        0x8 arch/arm/cpu/armv7/start.o
 .rel.text.boot_relocate_fdt
                0x80870160       0x40 arch/arm/cpu/armv7/start.o
 .rel.text.boot_get_fdt
                0x808701a0       0x80 arch/arm/cpu/armv7/start.o
 .rel.text.image_setup_libfdt
                0x80870220       0x10 arch/arm/cpu/armv7/start.o
 .rel.text.on_loadaddr
                0x80870230        0x8 arch/arm/cpu/armv7/start.o
 .rel.text.getenv_bootm_low
                0x80870238        0x8 arch/arm/cpu/armv7/start.o
 .rel.text.getenv_bootm_size
                0x80870240       0x10 arch/arm/cpu/armv7/start.o
 .rel.text.getenv_bootm_mapsize
                0x80870250        0x8 arch/arm/cpu/armv7/start.o
 .rel.text.genimg_print_size
                0x80870258       0x10 arch/arm/cpu/armv7/start.o
 .rel.text.genimg_get_os_name
                0x80870268       0x10 arch/arm/cpu/armv7/start.o
 .rel.text.genimg_get_arch_name
                0x80870278       0x10 arch/arm/cpu/armv7/start.o
 .rel.text.genimg_get_type_name
                0x80870288       0x10 arch/arm/cpu/armv7/start.o
 .rel.text.genimg_get_comp_name
                0x80870298       0x10 arch/arm/cpu/armv7/start.o
 .rel.text.image_print_contents
                0x808702a8       0x50 arch/arm/cpu/armv7/start.o
 .rel.text.genimg_get_os_id
                0x00000000        0x0 arch/arm/cpu/armv7/start.o
 .rel.text.genimg_get_arch_id
                0x00000000        0x0 arch/arm/cpu/armv7/start.o
 .rel.text.genimg_get_type_id
                0x00000000        0x0 arch/arm/cpu/armv7/start.o
 .rel.text.genimg_get_comp_id
                0x00000000        0x0 arch/arm/cpu/armv7/start.o
 .rel.text.boot_get_ramdisk
                0x808702f8       0x50 arch/arm/cpu/armv7/start.o
 .rel.text.boot_ramdisk_high
                0x80870348       0x20 arch/arm/cpu/armv7/start.o
 .rel.text.delete_char.part.0
                0x80870368       0x10 arch/arm/cpu/armv7/start.o
 .rel.text.cread_add_char
                0x80870378        0x8 arch/arm/cpu/armv7/start.o
 .rel.text.readline_into_buffer
                0x80870380       0xb0 arch/arm/cpu/armv7/start.o
 .rel.text.readline
                0x80870430        0x8 arch/arm/cpu/armv7/start.o
 .rel.text.parse_line
                0x00000000        0x0 arch/arm/cpu/armv7/start.o
 .rel.text.main_loop
                0x80870438       0x40 arch/arm/cpu/armv7/start.o
 .rel.text.do_run
                0x80870478        0x8 arch/arm/cpu/armv7/start.o
 .rel.text.miiphy_get_dev_by_name
                0x80870480       0x10 arch/arm/cpu/armv7/start.o
 .rel.text.miiphy_init
                0x80870490       0x10 arch/arm/cpu/armv7/start.o
 .rel.text.miiphy_register
                0x00000000        0x0 arch/arm/cpu/armv7/start.o
 .rel.text.mdio_register
                0x00000000        0x0 arch/arm/cpu/armv7/start.o
 .rel.text.mdio_list_devices
                0x808704a0       0x28 arch/arm/cpu/armv7/start.o
 .rel.text.miiphy_set_current_dev
                0x808704c8       0x10 arch/arm/cpu/armv7/start.o
 .rel.text.miiphy_get_active_dev
                0x808704d8        0x8 arch/arm/cpu/armv7/start.o
 .rel.text.mdio_get_current_dev
                0x808704e0        0x8 arch/arm/cpu/armv7/start.o
 .rel.text.mdio_phydev_for_ethname
                0x808704e8       0x10 arch/arm/cpu/armv7/start.o
 .rel.text.miiphy_get_current_dev
                0x808704f8        0x8 arch/arm/cpu/armv7/start.o
 .rel.text.miiphy_listdev
                0x80870500       0x30 arch/arm/cpu/armv7/start.o
 .rel.text.miiphy_is_1000base_x
                0x80870530        0x8 arch/arm/cpu/armv7/start.o
 .rel.text.miiphy_speed
                0x80870538       0x20 arch/arm/cpu/armv7/start.o
 .rel.text.miiphy_duplex
                0x80870558       0x28 arch/arm/cpu/armv7/start.o
 .rel.text.srec_decode
                0x80870580       0x50 arch/arm/cpu/armv7/start.o
 .rel.text.stdio_get_list
                0x808705d0        0x8 arch/arm/cpu/armv7/start.o
 .rel.text.stdio_get_by_name
                0x808705d8        0x8 arch/arm/cpu/armv7/start.o
 .rel.text.stdio_register
                0x808705e0        0x8 arch/arm/cpu/armv7/start.o
 .rel.text.stdio_init
                0x808705e8       0x30 arch/arm/cpu/armv7/start.o
 .rel.text.usb_stop
                0x80870618       0x18 arch/arm/cpu/armv7/start.o
 .rel.text.usb_disable_asynch
                0x80870630        0x8 arch/arm/cpu/armv7/start.o
 .rel.text.usb_control_msg
                0x80870638        0x8 arch/arm/cpu/armv7/start.o
 .rel.text.usb_string_sub
                0x80870640        0x8 arch/arm/cpu/armv7/start.o
 .rel.text.usb_get_configuration_no
                0x80870648       0x20 arch/arm/cpu/armv7/start.o
 .rel.text.usb_set_interface
                0x80870668        0x8 arch/arm/cpu/armv7/start.o
 .rel.text.usb_get_dev_index
                0x80870670        0x8 arch/arm/cpu/armv7/start.o
 .rel.text.usb_alloc_new_device
                0x80870678       0x18 arch/arm/cpu/armv7/start.o
 .rel.text.usb_free_device
                0x80870690       0x10 arch/arm/cpu/armv7/start.o
 .rel.text.usb_new_device
                0x808706a0       0xa0 arch/arm/cpu/armv7/start.o
 .rel.text.usb_init
                0x80870740       0x50 arch/arm/cpu/armv7/start.o
 .rel.text.usb_hub_reset
                0x80870790        0x8 arch/arm/cpu/armv7/start.o
 .rel.text.usb_hub_port_connect_change
                0x80870798        0x8 arch/arm/cpu/armv7/start.o
 .rel.text.usb_hub_configure
                0x808707a0       0x18 arch/arm/cpu/armv7/start.o
 .rel.text.usb_stor_BBB_transport
                0x808707b8       0x10 arch/arm/cpu/armv7/start.o
 .rel.text.usb_stor_CB_comdat
                0x808707c8        0x8 arch/arm/cpu/armv7/start.o
 .rel.text.usb_stor_CBI_get_status.isra.4
                0x808707d0        0x8 arch/arm/cpu/armv7/start.o
 .rel.text.usb_stor_CB_transport
                0x808707d8       0x10 arch/arm/cpu/armv7/start.o
 .rel.text.usb_request_sense.constprop.10
                0x808707e8        0x8 arch/arm/cpu/armv7/start.o
 .rel.text.usb_stor_write
                0x808707f0       0x10 arch/arm/cpu/armv7/start.o
 .rel.text.usb_stor_read
                0x80870800       0x10 arch/arm/cpu/armv7/start.o
 .rel.text.usb_stor_get_dev
                0x80870810       0x10 arch/arm/cpu/armv7/start.o
 .rel.text.usb_stor_info
                0x80870820       0x20 arch/arm/cpu/armv7/start.o
 .rel.text.usb_storage_probe
                0x80870840       0x38 arch/arm/cpu/armv7/start.o
 .rel.text.usb_stor_get_info
                0x80870878       0x20 arch/arm/cpu/armv7/start.o
 .rel.text.usb_stor_scan
                0x80870898       0x40 arch/arm/cpu/armv7/start.o
 .rel.text.xyzModem_get_hdr
                0x808708d8       0x30 arch/arm/cpu/armv7/start.o
 .rel.text.xyzModem_stream_open
                0x80870908       0x10 arch/arm/cpu/armv7/start.o
 .rel.text.xyzModem_stream_read
                0x80870918        0x8 arch/arm/cpu/armv7/start.o
 .rel.text.xyzModem_stream_close
                0x80870920       0x20 arch/arm/cpu/armv7/start.o
 .rel.text.xyzModem_stream_terminate
                0x80870940        0x8 arch/arm/cpu/armv7/start.o
 .rel.text.xyzModem_error
                0x80870948       0x10 arch/arm/cpu/armv7/start.o
 .rel.rodata.boot_os
                0x80870958       0x20 arch/arm/cpu/armv7/start.o
 .rel.rodata.op_table
                0x80870978       0x68 arch/arm/cpu/armv7/start.o
 .rel.rodata.reg_4_desc_tbl
                0x808709e0       0x60 arch/arm/cpu/armv7/start.o
 .rel.rodata.desc_and_len_tbl
                0x80870a40       0x30 arch/arm/cpu/armv7/start.o
 .rel.rodata.reg_5_desc_tbl
                0x80870a70       0x60 arch/arm/cpu/armv7/start.o
 .rel.rodata.reg_2_desc_tbl
                0x80870ad0        0x8 arch/arm/cpu/armv7/start.o
 .rel.rodata.reg_0_5_desc_tbl
                0x80870ad8       0x30 arch/arm/cpu/armv7/start.o
 .rel.rodata.reg_3_desc_tbl
                0x80870b08       0x18 arch/arm/cpu/armv7/start.o
 .rel.rodata.reg_0_desc_tbl
                0x80870b20       0x50 arch/arm/cpu/armv7/start.o
 .rel.rodata.reg_1_desc_tbl
                0x80870b70       0x80 arch/arm/cpu/armv7/start.o
 .rel.rodata.subcmd_list
                0x80870bf0       0x10 arch/arm/cpu/armv7/start.o
 .rel.rodata.CSWTCH.26
                0x80870c00       0x28 arch/arm/cpu/armv7/start.o
 .rel.rodata.location.7106
                0x80870c28       0x10 arch/arm/cpu/armv7/start.o
 .rel.rodata.uimage_comp
                0x80870c38       0x60 arch/arm/cpu/armv7/start.o
 .rel.rodata.uimage_os
                0x80870c98       0x78 arch/arm/cpu/armv7/start.o
 .rel.rodata.uimage_arch
                0x80870d10      0x158 arch/arm/cpu/armv7/start.o
 .rel.rodata.uimage_type
                0x80870e68      0x118 arch/arm/cpu/armv7/start.o
 .rel.rodata.CSWTCH.28
                0x80870f80       0x40 arch/arm/cpu/armv7/start.o
 .rel.u_boot_list_2_cmd_2_bdinfo
                0x80870fc0       0x20 arch/arm/cpu/armv7/start.o
 .rel.u_boot_list_2_cmd_2_go
                0x80870fe0       0x20 arch/arm/cpu/armv7/start.o
 .rel.u_boot_list_2_cmd_2_reset
                0x80871000       0x20 arch/arm/cpu/armv7/start.o
 .rel.u_boot_list_2_cmd_2_iminfo
                0x80871020       0x20 arch/arm/cpu/armv7/start.o
 .rel.u_boot_list_2_cmd_2_bootz
                0x80871040       0x20 arch/arm/cpu/armv7/start.o
 .rel.u_boot_list_2_cmd_2_boot
                0x80871060       0x20 arch/arm/cpu/armv7/start.o
 .rel.u_boot_list_2_cmd_2_bootd
                0x80871080       0x20 arch/arm/cpu/armv7/start.o
 .rel.u_boot_list_2_cmd_2_bootm
                0x808710a0       0x20 arch/arm/cpu/armv7/start.o
 .rel.data.cmd_bootm_sub
                0x808710c0       0xd8 arch/arm/cpu/armv7/start.o
 .rel.u_boot_list_2_cmd_2_coninfo
                0x80871198       0x20 arch/arm/cpu/armv7/start.o
 .rel.u_boot_list_2_cmd_2_dfu
                0x808711b8       0x20 arch/arm/cpu/armv7/start.o
 .rel.u_boot_list_2_cmd_2_echo
                0x808711d8       0x20 arch/arm/cpu/armv7/start.o
 .rel.u_boot_list_2_cmd_2_eeprom
                0x808711f8       0x20 arch/arm/cpu/armv7/start.o
 .rel.u_boot_list_2_cmd_2_exit
                0x80871218       0x20 arch/arm/cpu/armv7/start.o
 .rel.u_boot_list_2_cmd_2_ext2ls
                0x80871238       0x20 arch/arm/cpu/armv7/start.o
 .rel.u_boot_list_2_cmd_2_ext2load
                0x80871258       0x20 arch/arm/cpu/armv7/start.o
 .rel.u_boot_list_2_cmd_2_ext4load
                0x80871278       0x20 arch/arm/cpu/armv7/start.o
 .rel.u_boot_list_2_cmd_2_ext4ls
                0x80871298       0x20 arch/arm/cpu/armv7/start.o
 .rel.u_boot_list_2_cmd_2_fatinfo
                0x808712b8       0x20 arch/arm/cpu/armv7/start.o
 .rel.u_boot_list_2_cmd_2_fatwrite
                0x808712d8       0x20 arch/arm/cpu/armv7/start.o
 .rel.u_boot_list_2_cmd_2_fatload
                0x808712f8       0x20 arch/arm/cpu/armv7/start.o
 .rel.u_boot_list_2_cmd_2_fatls
                0x80871318       0x20 arch/arm/cpu/armv7/start.o
 .rel.u_boot_list_2_cmd_2_fdt
                0x80871338       0x20 arch/arm/cpu/armv7/start.o
 .rel.u_boot_list_2_cmd_2_ls
                0x80871358       0x20 arch/arm/cpu/armv7/start.o
 .rel.u_boot_list_2_cmd_2_load
                0x80871378       0x20 arch/arm/cpu/armv7/start.o
 .rel.u_boot_list_2_cmd_2_gpio
                0x80871398       0x20 arch/arm/cpu/armv7/start.o
 .rel.u_boot_list_2_cmd_2_gpt
                0x808713b8       0x20 arch/arm/cpu/armv7/start.o
 .rel.u_boot_list_2_cmd_2_question_mark
                0x808713d8       0x20 arch/arm/cpu/armv7/start.o
 .rel.u_boot_list_2_cmd_2_help
                0x808713f8       0x20 arch/arm/cpu/armv7/start.o
 .rel.data.cmd_i2c_sub
                0x80871418      0x180 arch/arm/cpu/armv7/start.o
 .rel.u_boot_list_2_cmd_2_i2c
                0x80871598       0x20 arch/arm/cpu/armv7/start.o
 .rel.u_boot_list_2_cmd_2_itest
                0x808715b8       0x20 arch/arm/cpu/armv7/start.o
 .rel.u_boot_list_2_cmd_2_lcd
                0x808715d8       0x20 arch/arm/cpu/armv7/start.o
 .rel.u_boot_list_2_cmd_2_loadb
                0x808715f8       0x20 arch/arm/cpu/armv7/start.o
 .rel.u_boot_list_2_cmd_2_loadx
                0x80871618       0x20 arch/arm/cpu/armv7/start.o
 .rel.u_boot_list_2_cmd_2_loady
                0x80871638       0x20 arch/arm/cpu/armv7/start.o
 .rel.u_boot_list_2_cmd_2_loads
                0x80871658       0x20 arch/arm/cpu/armv7/start.o
 .rel.u_boot_list_2_cmd_2_mdio
                0x80871678       0x20 arch/arm/cpu/armv7/start.o
 .rel.u_boot_list_2_cmd_2_base
                0x80871698       0x20 arch/arm/cpu/armv7/start.o
 .rel.u_boot_list_2_cmd_2_cmp
                0x808716b8       0x20 arch/arm/cpu/armv7/start.o
 .rel.u_boot_list_2_cmd_2_nm
                0x808716d8       0x20 arch/arm/cpu/armv7/start.o
 .rel.u_boot_list_2_cmd_2_loop
                0x808716f8       0x20 arch/arm/cpu/armv7/start.o
 .rel.u_boot_list_2_cmd_2_mtest
                0x80871718       0x20 arch/arm/cpu/armv7/start.o
 .rel.u_boot_list_2_cmd_2_cp
                0x80871738       0x20 arch/arm/cpu/armv7/start.o
 .rel.u_boot_list_2_cmd_2_mm
                0x80871758       0x20 arch/arm/cpu/armv7/start.o
 .rel.u_boot_list_2_cmd_2_crc32
                0x80871778       0x20 arch/arm/cpu/armv7/start.o
 .rel.u_boot_list_2_cmd_2_md
                0x80871798       0x20 arch/arm/cpu/armv7/start.o
 .rel.u_boot_list_2_cmd_2_mw
                0x808717b8       0x20 arch/arm/cpu/armv7/start.o
 .rel.u_boot_list_2_cmd_2_mii
                0x808717d8       0x20 arch/arm/cpu/armv7/start.o
 .rel.u_boot_list_2_cmd_2_sleep
                0x808717f8       0x20 arch/arm/cpu/armv7/start.o
 .rel.u_boot_list_2_cmd_2_mmcinfo
                0x80871818       0x20 arch/arm/cpu/armv7/start.o
 .rel.u_boot_list_2_cmd_2_mmc
                0x80871838       0x20 arch/arm/cpu/armv7/start.o
 .rel.u_boot_list_2_cmd_2_mtdparts
                0x80871858       0x20 arch/arm/cpu/armv7/start.o
 .rel.u_boot_list_2_cmd_2_chpart
                0x80871878       0x20 arch/arm/cpu/armv7/start.o
 .rel.u_boot_list_2_cmd_2_nboot
                0x80871898       0x20 arch/arm/cpu/armv7/start.o
 .rel.u_boot_list_2_cmd_2_nand
                0x808718b8       0x20 arch/arm/cpu/armv7/start.o
 .rel.u_boot_list_2_cmd_2_ping
                0x808718d8       0x20 arch/arm/cpu/armv7/start.o
 .rel.u_boot_list_2_cmd_2_dhcp
                0x808718f8       0x20 arch/arm/cpu/armv7/start.o
 .rel.u_boot_list_2_cmd_2_bootp
                0x80871918       0x20 arch/arm/cpu/armv7/start.o
 .rel.u_boot_list_2_cmd_2_tftpboot
                0x80871938       0x20 arch/arm/cpu/armv7/start.o
 .rel.u_boot_list_2_cmd_2_nfs
                0x80871958       0x20 arch/arm/cpu/armv7/start.o
 .rel.u_boot_list_2_cmd_2_askenv
                0x80871978       0x20 arch/arm/cpu/armv7/start.o
 .rel.u_boot_list_2_cmd_2_setenv
                0x80871998       0x28 arch/arm/cpu/armv7/start.o
 .rel.u_boot_list_2_cmd_2_saveenv
                0x808719c0       0x20 arch/arm/cpu/armv7/start.o
 .rel.u_boot_list_2_cmd_2_env
                0x808719e0       0x20 arch/arm/cpu/armv7/start.o
 .rel.data.cmd_env_sub
                0x80871a00      0x140 arch/arm/cpu/armv7/start.o
 .rel.u_boot_list_2_cmd_2_printenv
                0x80871b40       0x28 arch/arm/cpu/armv7/start.o
 .rel.u_boot_list_2_cmd_2_editenv
                0x80871b68       0x28 arch/arm/cpu/armv7/start.o
 .rel.u_boot_list_2_cmd_2_run
                0x80871b90       0x28 arch/arm/cpu/armv7/start.o
 .rel.u_boot_list_2_cmd_2_part
                0x80871bb8       0x20 arch/arm/cpu/armv7/start.o
 .rel.u_boot_list_2_cmd_2_sf
                0x80871bd8       0x20 arch/arm/cpu/armv7/start.o
 .rel.u_boot_list_2_cmd_2_source
                0x80871bf8       0x20 arch/arm/cpu/armv7/start.o
 .rel.u_boot_list_2_cmd_2_sspi
                0x80871c18       0x20 arch/arm/cpu/armv7/start.o
 .rel.data.cmd_spl_export_sub
                0x80871c38       0x30 arch/arm/cpu/armv7/start.o
 .rel.data.__compound_literal.0
                0x80871c68       0x38 arch/arm/cpu/armv7/start.o
 .rel.data.__compound_literal.1
                0x80871ca0       0x30 arch/arm/cpu/armv7/start.o
 .rel.data.cmd_spl_sub
                0x80871cd0       0x18 arch/arm/cpu/armv7/start.o
 .rel.u_boot_list_2_cmd_2_spl
                0x80871ce8       0x20 arch/arm/cpu/armv7/start.o
 .rel.u_boot_list_2_cmd_2_test
                0x80871d08       0x20 arch/arm/cpu/armv7/start.o
 .rel.u_boot_list_2_cmd_2_true
                0x80871d28       0x18 arch/arm/cpu/armv7/start.o
 .rel.u_boot_list_2_cmd_2_false
                0x80871d40       0x18 arch/arm/cpu/armv7/start.o
 .rel.u_boot_list_2_cmd_2_ubi
                0x80871d58       0x20 arch/arm/cpu/armv7/start.o
 .rel.u_boot_list_2_cmd_2_ubifsumount
                0x80871d78       0x20 arch/arm/cpu/armv7/start.o
 .rel.u_boot_list_2_cmd_2_ubifsload
                0x80871d98       0x20 arch/arm/cpu/armv7/start.o
 .rel.u_boot_list_2_cmd_2_ubifsls
                0x80871db8       0x20 arch/arm/cpu/armv7/start.o
 .rel.u_boot_list_2_cmd_2_ubifsmount
                0x80871dd8       0x20 arch/arm/cpu/armv7/start.o
 .rel.u_boot_list_2_cmd_2_usb
                0x80871df8       0x20 arch/arm/cpu/armv7/start.o
 .rel.u_boot_list_2_cmd_2_usbboot
                0x80871e18       0x20 arch/arm/cpu/armv7/start.o
 .rel.u_boot_list_2_cmd_2_version
                0x80871e38       0x20 arch/arm/cpu/armv7/start.o
 .rel.u_boot_list_2_cmd_2_imxtract
                0x80871e58       0x20 arch/arm/cpu/armv7/start.o
 .rel.u_boot_list_2_env_clbk_2_console
                0x80871e78       0x10 arch/arm/cpu/armv7/start.o
 .rel.data.av_  0x80871e88      0x800 arch/arm/cpu/armv7/start.o
 .rel.u_boot_list_2_env_clbk_2_callbacks
                0x80872688       0x10 arch/arm/cpu/armv7/start.o
 .rel.data.env_htab
                0x80872698        0x8 arch/arm/cpu/armv7/start.o
 .rel.u_boot_list_2_env_clbk_2_flags
                0x808726a0       0x10 arch/arm/cpu/armv7/start.o
 .rel.data.env_name_spec
                0x808726b0        0x8 arch/arm/cpu/armv7/start.o
 .rel.data.of_busses
                0x00000000        0x0 arch/arm/cpu/armv7/start.o
 .rel.data.hash_algo
                0x00000000        0x0 arch/arm/cpu/armv7/start.o
 .rel.data.reserved_list
                0x808726b8       0x58 arch/arm/cpu/armv7/start.o
 .rel.u_boot_list_2_cmd_2_showvar
                0x80872710       0x20 arch/arm/cpu/armv7/start.o
 .rel.u_boot_list_2_env_clbk_2_loadaddr
                0x80872730       0x10 arch/arm/cpu/armv7/start.o
 .rel.data.stdio_names
                0x80872740       0x18 arch/arm/cpu/armv7/start.o
 .rel.text.print_part_header
                0x80872758       0x90 arch/arm/cpu/armv7/start.o
 .rel.text.get_dev
                0x808727e8        0x8 arch/arm/cpu/armv7/start.o
 .rel.text.dev_print
                0x808727f0      0x110 arch/arm/cpu/armv7/start.o
 .rel.text.print_part
                0x80872900       0x18 arch/arm/cpu/armv7/start.o
 .rel.text.get_device
                0x80872918       0x10 arch/arm/cpu/armv7/start.o
 .rel.text.get_device_and_partition
                0x80872928       0x70 arch/arm/cpu/armv7/start.o
 .rel.text.get_partition_info_extended
                0x80872998       0x88 arch/arm/cpu/armv7/start.o
 .rel.text.test_block_type
                0x80872a20       0x10 arch/arm/cpu/armv7/start.o
 .rel.text.print_partition_extended
                0x80872a30       0x30 arch/arm/cpu/armv7/start.o
 .rel.text.print_part_dos
                0x80872a60        0x8 arch/arm/cpu/armv7/start.o
 .rel.text.print_efiname
                0x80872a68       0x10 arch/arm/cpu/armv7/start.o
 .rel.text.uuid_string
                0x80872a78       0x10 arch/arm/cpu/armv7/start.o
 .rel.text.is_pte_valid
                0x80872a88       0x10 arch/arm/cpu/armv7/start.o
 .rel.text.string_uuid
                0x80872a98        0x8 arch/arm/cpu/armv7/start.o
 .rel.text.is_gpt_valid.constprop.2
                0x80872aa0       0x68 arch/arm/cpu/armv7/start.o
 .rel.text.print_part_efi
                0x80872b08       0x50 arch/arm/cpu/armv7/start.o
 .rel.text.get_partition_info_efi
                0x80872b58       0x30 arch/arm/cpu/armv7/start.o
 .rel.text.write_gpt_table
                0x80872b88       0x18 arch/arm/cpu/armv7/start.o
 .rel.text.gpt_fill_pte
                0x80872ba0       0x28 arch/arm/cpu/armv7/start.o
 .rel.text.gpt_restore
                0x80872bc8       0x10 arch/arm/cpu/armv7/start.o
 .rel.rodata.block_drvr
                0x80872bd8       0x20 arch/arm/cpu/armv7/start.o
 .rel.text.dfu_write_buffer_drain
                0x80872bf8        0x8 arch/arm/cpu/armv7/start.o
 .rel.text.dfu_reset
                0x80872c00        0x8 arch/arm/cpu/armv7/start.o
 .rel.text.dfu_trigger_reset
                0x80872c08        0x8 arch/arm/cpu/armv7/start.o
 .rel.text.dfu_free_buf
                0x80872c10        0x8 arch/arm/cpu/armv7/start.o
 .rel.text.dfu_get_buf
                0x80872c18       0x28 arch/arm/cpu/armv7/start.o
 .rel.text.dfu_write
                0x80872c40       0x38 arch/arm/cpu/armv7/start.o
 .rel.text.dfu_read
                0x80872c78       0x38 arch/arm/cpu/armv7/start.o
 .rel.text.dfu_free_entities
                0x80872cb0        0x8 arch/arm/cpu/armv7/start.o
 .rel.text.dfu_config_entities
                0x80872cb8       0x48 arch/arm/cpu/armv7/start.o
 .rel.text.dfu_init_env_entities
                0x80872d00       0x28 arch/arm/cpu/armv7/start.o
 .rel.text.dfu_get_dev_type
                0x80872d28        0x8 arch/arm/cpu/armv7/start.o
 .rel.text.dfu_get_layout
                0x80872d30        0x8 arch/arm/cpu/armv7/start.o
 .rel.text.dfu_show_entities
                0x80872d38       0x18 arch/arm/cpu/armv7/start.o
 .rel.text.dfu_get_alt_number
                0x80872d50        0x8 arch/arm/cpu/armv7/start.o
 .rel.text.dfu_get_entity
                0x80872d58        0x8 arch/arm/cpu/armv7/start.o
 .rel.text.dfu_get_alt
                0x00000000        0x0 arch/arm/cpu/armv7/start.o
 .rel.text.mmc_block_op
                0x80872d60       0x20 arch/arm/cpu/armv7/start.o
 .rel.text.mmc_file_op
                0x80872d80       0x58 arch/arm/cpu/armv7/start.o
 .rel.text.dfu_write_medium_mmc
                0x80872dd8       0x20 arch/arm/cpu/armv7/start.o
 .rel.text.dfu_flush_medium_mmc
                0x80872df8       0x10 arch/arm/cpu/armv7/start.o
 .rel.text.dfu_read_medium_mmc
                0x80872e08       0x10 arch/arm/cpu/armv7/start.o
 .rel.text.dfu_fill_entity_mmc
                0x80872e18       0x60 arch/arm/cpu/armv7/start.o
 .rel.text.dfu_flush_medium_nand
                0x80872e78       0x28 arch/arm/cpu/armv7/start.o
 .rel.text.nand_block_op
                0x80872ea0       0x38 arch/arm/cpu/armv7/start.o
 .rel.text.dfu_write_medium_nand
                0x80872ed8       0x10 arch/arm/cpu/armv7/start.o
 .rel.text.dfu_read_medium_nand
                0x80872ee8       0x10 arch/arm/cpu/armv7/start.o
 .rel.text.dfu_fill_entity_nand
                0x80872ef8       0x68 arch/arm/cpu/armv7/start.o
 .rel.text.dfu_write_medium_ram
                0x80872f60       0x20 arch/arm/cpu/armv7/start.o
 .rel.text.dfu_read_medium_ram
                0x80872f80       0x20 arch/arm/cpu/armv7/start.o
 .rel.text.dfu_fill_entity_ram
                0x80872fa0       0x38 arch/arm/cpu/armv7/start.o
 .rel.data.dfu_list
                0x80872fd8       0x10 arch/arm/cpu/armv7/start.o
 .rel.text.check_gpio
                0x80872fe8        0x8 arch/arm/cpu/armv7/start.o
 .rel.text._set_gpio_dataout
                0x80872ff0       0x10 arch/arm/cpu/armv7/start.o
 .rel.text.gpio_set_value
                0x00000000        0x0 arch/arm/cpu/armv7/start.o
 .rel.text.gpio_get_value
                0x80873000        0x8 arch/arm/cpu/armv7/start.o
 .rel.text.gpio_direction_input
                0x80873008        0x8 arch/arm/cpu/armv7/start.o
 .rel.text.gpio_direction_output
                0x80873010        0x8 arch/arm/cpu/armv7/start.o
 .rel.text.flush_fifo
                0x80873018        0x8 arch/arm/cpu/armv7/start.o
 .rel.text.wait_for_bb
                0x80873020       0x10 arch/arm/cpu/armv7/start.o
 .rel.text.wait_for_event
                0x80873030       0x18 arch/arm/cpu/armv7/start.o
 .rel.text.i2c_init
                0x80873048       0x20 arch/arm/cpu/armv7/start.o
 .rel.text.i2c_probe
                0x80873068       0x10 arch/arm/cpu/armv7/start.o
 .rel.text.i2c_read
                0x80873078       0x48 arch/arm/cpu/armv7/start.o
 .rel.text.i2c_write
                0x808730c0       0x58 arch/arm/cpu/armv7/start.o
 .rel.text.i2c_set_bus_num
                0x80873118       0x10 arch/arm/cpu/armv7/start.o
 .rel.text.i2c_get_bus_num
                0x80873128        0x8 arch/arm/cpu/armv7/start.o
 .rel.text.input_send_keycodes
                0x00000000        0x0 arch/arm/cpu/armv7/start.o
 .rel.text.input_init
                0x00000000        0x0 arch/arm/cpu/armv7/start.o
 .rel.text.input_stdio_register
                0x00000000        0x0 arch/arm/cpu/armv7/start.o
 .rel.rodata.kbd_to_ansi364
                0x00000000        0x0 arch/arm/cpu/armv7/start.o
 .rel.text.mmc_set_ios
                0x80873130       0x10 arch/arm/cpu/armv7/start.o
 .rel.text.mmc_set_capacity
                0x80873140       0x40 arch/arm/cpu/armv7/start.o
 .rel.text.mmc_send_cmd
                0x80873180       0x38 arch/arm/cpu/armv7/start.o
 .rel.text.mmc_send_status
                0x808731b8       0x10 arch/arm/cpu/armv7/start.o
 .rel.text.find_mmc_device
                0x808731c8       0x10 arch/arm/cpu/armv7/start.o
 .rel.text.mmc_bread
                0x808731d8       0x10 arch/arm/cpu/armv7/start.o
 .rel.text.mmc_startup
                0x808731e8       0x98 arch/arm/cpu/armv7/start.o
 .rel.text.mmc_register
                0x80873280       0x28 arch/arm/cpu/armv7/start.o
 .rel.text.mmc_start_init
                0x808732a8       0x10 arch/arm/cpu/armv7/start.o
 .rel.text.print_mmc_devices
                0x808732b8       0x20 arch/arm/cpu/armv7/start.o
 .rel.text.get_mmc_num
                0x808732d8        0x8 arch/arm/cpu/armv7/start.o
 .rel.text.mmc_initialize
                0x808732e0       0x10 arch/arm/cpu/armv7/start.o
 .rel.text.mmc_reset_controller_fsm
                0x808732f0       0x10 arch/arm/cpu/armv7/start.o
 .rel.text.mmc_init_stream
                0x80873300       0x18 arch/arm/cpu/armv7/start.o
 .rel.text.mmc_init_setup
                0x80873318       0x20 arch/arm/cpu/armv7/start.o
 .rel.text.omap_mmc_init
                0x80873338       0x50 arch/arm/cpu/armv7/start.o
 .rel.text.mmc_berase
                0x80873388       0x10 arch/arm/cpu/armv7/start.o
 .rel.text.mmc_bwrite
                0x80873398       0x18 arch/arm/cpu/armv7/start.o
 .rel.text.add_mtd_device
                0x808733b0       0x18 arch/arm/cpu/armv7/start.o
 .rel.text.del_mtd_device
                0x808733c8       0x10 arch/arm/cpu/armv7/start.o
 .rel.text.get_mtd_device
                0x808733d8        0x8 arch/arm/cpu/armv7/start.o
 .rel.text.get_mtd_device_nm
                0x808733e0        0x8 arch/arm/cpu/armv7/start.o
 .rel.text.put_mtd_device
                0x808733e8       0x10 arch/arm/cpu/armv7/start.o
 .rel.text.mtd_erase_callback
                0x808733f8        0x8 arch/arm/cpu/armv7/start.o
 .rel.text.del_mtd_partitions
                0x80873400        0x8 arch/arm/cpu/armv7/start.o
 .rel.text.add_mtd_partitions
                0x80873408       0xd0 arch/arm/cpu/armv7/start.o
 .rel.text.nand_register
                0x808734d8       0x28 arch/arm/cpu/armv7/start.o
 .rel.text.nand_init
                0x80873500       0x20 arch/arm/cpu/armv7/start.o
 .rel.text.verify_bbt_descr
                0x80873520       0x20 arch/arm/cpu/armv7/start.o
 .rel.text.create_bbt
                0x80873540       0x20 arch/arm/cpu/armv7/start.o
 .rel.text.write_bbt
                0x80873560       0x40 arch/arm/cpu/armv7/start.o
 .rel.text.nand_default_bbt
                0x808735a0       0x30 arch/arm/cpu/armv7/start.o
 .rel.text.nand_erase_opts
                0x808735d0       0x48 arch/arm/cpu/armv7/start.o
 .rel.text.nand_write_skip_bad
                0x80873618       0x28 arch/arm/cpu/armv7/start.o
 .rel.text.nand_read_skip_bad
                0x80873640       0x28 arch/arm/cpu/armv7/start.o
 .rel.text.nand_calculate_ecc
                0x80873668        0x8 arch/arm/cpu/armv7/start.o
 .rel.text.nand_wait
                0x80873670        0x8 arch/arm/cpu/armv7/start.o
 .rel.text.nand_fill_oob
                0x80873678       0x20 arch/arm/cpu/armv7/start.o
 .rel.text.nand_do_write_ops
                0x80873698        0x8 arch/arm/cpu/armv7/start.o
 .rel.text.nand_select_chip
                0x808736a0       0x20 arch/arm/cpu/armv7/start.o
 .rel.text.nand_transfer_oob
                0x808736c0       0x20 arch/arm/cpu/armv7/start.o
 .rel.text.nand_scan_ident
                0x808736e0       0xf0 arch/arm/cpu/armv7/start.o
 .rel.text.nand_scan_tail
                0x808737d0      0x158 arch/arm/cpu/armv7/start.o
 .rel.text.omap_nand_hwcontrol
                0x80873928       0x10 arch/arm/cpu/armv7/start.o
 .rel.text.omap_enable_hwecc
                0x80873938       0x40 arch/arm/cpu/armv7/start.o
 .rel.text.omap_calculate_ecc
                0x80873978        0x8 arch/arm/cpu/armv7/start.o
 .rel.text.omap_correct_data
                0x00000000        0x0 arch/arm/cpu/armv7/start.o
 .rel.text.omap_correct_data_bch
                0x80873980       0x20 arch/arm/cpu/armv7/start.o
 .rel.text.omap_nand_switch_ecc
                0x00000000        0x0 arch/arm/cpu/armv7/start.o
 .rel.text.board_nand_init
                0x808739a0       0x50 arch/arm/cpu/armv7/start.o
 .rel.text.elm_check_error
                0x808739f0       0x10 arch/arm/cpu/armv7/start.o
 .rel.text.elm_config
                0x80873a00        0x8 arch/arm/cpu/armv7/start.o
 .rel.text.elm_reset
                0x80873a08        0x8 arch/arm/cpu/armv7/start.o
 .rel.text.elm_init
                0x80873a10        0x8 arch/arm/cpu/armv7/start.o
 .rel.rodata.nand_manuf_ids
                0x00000000        0x0 arch/arm/cpu/armv7/start.o
 .rel.rodata.nand_flash_ids
                0x80873a18      0x240 arch/arm/cpu/armv7/start.o
 .rel.data.bbt_mirror_descr
                0x80873c58        0x8 arch/arm/cpu/armv7/start.o
 .rel.data.bbt_main_no_oob_descr
                0x80873c60        0x8 arch/arm/cpu/armv7/start.o
 .rel.data.bbt_mirror_no_oob_descr
                0x80873c68        0x8 arch/arm/cpu/armv7/start.o
 .rel.data.bbt_main_descr
                0x80873c70        0x8 arch/arm/cpu/armv7/start.o
 .rel.data.agand_flashbased
                0x80873c78        0x8 arch/arm/cpu/armv7/start.o
 .rel.text.spi_flash_probe
                0x80873c80       0x80 arch/arm/cpu/armv7/start.o
 .rel.text.spi_flash_set_qeb_mxic
                0x00000000        0x0 arch/arm/cpu/armv7/start.o
 .rel.rodata.spi_flash_params_table
                0x80873d00       0x90 arch/arm/cpu/armv7/start.o
 .rel.text.ubi_get_device
                0x80873d90        0x8 arch/arm/cpu/armv7/start.o
 .rel.text.ubi_get_by_major
                0x00000000        0x0 arch/arm/cpu/armv7/start.o
 .rel.text.ubi_major2num
                0x00000000        0x0 arch/arm/cpu/armv7/start.o
 .rel.text.ubi_attach_mtd_dev
                0x80873d98      0x138 arch/arm/cpu/armv7/start.o
 .rel.text.ubi_detach_mtd_dev
                0x80873ed0       0x20 arch/arm/cpu/armv7/start.o
 .rel.text.ubi_init
                0x80873ef0       0x48 arch/arm/cpu/armv7/start.o
 .rel.text.ubi_exit
                0x80873f38       0x10 arch/arm/cpu/armv7/start.o
 .rel.text.ubi_mtd_param_parse
                0x80873f48       0x40 arch/arm/cpu/armv7/start.o
 .rel.text.create_vtbl
                0x80873f88       0x10 arch/arm/cpu/armv7/start.o
 .rel.text.vtbl_check
                0x80873f98       0x28 arch/arm/cpu/armv7/start.o
 .rel.text.ubi_change_vtbl_record
                0x80873fc0        0x8 arch/arm/cpu/armv7/start.o
 .rel.text.ubi_read_volume_table
                0x80873fc8       0x98 arch/arm/cpu/armv7/start.o
 .rel.text.ubi_create_volume
                0x80874060       0x28 arch/arm/cpu/armv7/start.o
 .rel.text.ubi_remove_volume
                0x00000000        0x0 arch/arm/cpu/armv7/start.o
 .rel.text.ubi_resize_volume
                0x80874088        0x8 arch/arm/cpu/armv7/start.o
 .rel.text.ubi_add_volume
                0x80874090       0x18 arch/arm/cpu/armv7/start.o
 .rel.text.ubi_open_volume
                0x808740a8       0x10 arch/arm/cpu/armv7/start.o
 .rel.text.ubi_leb_read
                0x808740b8       0x10 arch/arm/cpu/armv7/start.o
 .rel.text.ubi_eba_read_leb
                0x808740c8       0x30 arch/arm/cpu/armv7/start.o
 .rel.text.ubi_eba_write_leb
                0x808740f8       0x60 arch/arm/cpu/armv7/start.o
 .rel.text.ubi_eba_write_leb_st
                0x80874158       0x30 arch/arm/cpu/armv7/start.o
 .rel.text.ubi_eba_atomic_leb_change
                0x00000000        0x0 arch/arm/cpu/armv7/start.o
 .rel.text.ubi_eba_copy_leb
                0x80874188       0x28 arch/arm/cpu/armv7/start.o
 .rel.text.ubi_eba_init_scan
                0x808741b0       0x18 arch/arm/cpu/armv7/start.o
 .rel.text.do_sync_erase
                0x808741c8       0x20 arch/arm/cpu/armv7/start.o
 .rel.text.ubi_io_read
                0x808741e8       0x20 arch/arm/cpu/armv7/start.o
 .rel.text.ubi_io_write
                0x80874208       0x18 arch/arm/cpu/armv7/start.o
 .rel.text.ubi_io_sync_erase
                0x80874220       0x38 arch/arm/cpu/armv7/start.o
 .rel.text.ubi_io_is_bad
                0x80874258       0x10 arch/arm/cpu/armv7/start.o
 .rel.text.ubi_io_mark_bad
                0x80874268       0x18 arch/arm/cpu/armv7/start.o
 .rel.text.ubi_io_read_ec_hdr
                0x80874280       0x58 arch/arm/cpu/armv7/start.o
 .rel.text.ubi_io_read_vid_hdr
                0x808742d8       0x38 arch/arm/cpu/armv7/start.o
 .rel.text.do_work
                0x80874310       0x10 arch/arm/cpu/armv7/start.o
 .rel.text.ensure_wear_leveling
                0x80874320        0x8 arch/arm/cpu/armv7/start.o
 .rel.text.schedule_erase
                0x80874328        0x8 arch/arm/cpu/armv7/start.o
 .rel.text.erase_worker
                0x80874330       0x58 arch/arm/cpu/armv7/start.o
 .rel.text.wear_leveling_worker
                0x80874388       0x28 arch/arm/cpu/armv7/start.o
 .rel.text.ubi_wl_get_peb
                0x808743b0       0x30 arch/arm/cpu/armv7/start.o
 .rel.text.ubi_wl_put_peb
                0x808743e0       0x20 arch/arm/cpu/armv7/start.o
 .rel.text.ubi_wl_scrub_peb
                0x80874400       0x28 arch/arm/cpu/armv7/start.o
 .rel.text.ubi_thread
                0x00000000        0x0 arch/arm/cpu/armv7/start.o
 .rel.text.ubi_wl_init_scan
                0x80874428       0x18 arch/arm/cpu/armv7/start.o
 .rel.text.validate_vid_hdr
                0x80874440       0x10 arch/arm/cpu/armv7/start.o
 .rel.text.add_to_list
                0x80874450       0x20 arch/arm/cpu/armv7/start.o
 .rel.text.ubi_scan_add_used
                0x80874470       0x28 arch/arm/cpu/armv7/start.o
 .rel.text.ubi_scan_erase_peb
                0x80874498       0x10 arch/arm/cpu/armv7/start.o
 .rel.text.ubi_scan_get_free_peb
                0x808744a8       0x10 arch/arm/cpu/armv7/start.o
 .rel.text.ubi_scan
                0x808744b8       0x78 arch/arm/cpu/armv7/start.o
 .rel.text.crc32_le
                0x80874530        0x8 arch/arm/cpu/armv7/start.o
 .rel.text.phy_device_create
                0x00000000        0x0 arch/arm/cpu/armv7/start.o
 .rel.text.get_phy_device_by_mask
                0x00000000        0x0 arch/arm/cpu/armv7/start.o
 .rel.text.genphy_update_link
                0x80874538       0x28 arch/arm/cpu/armv7/start.o
 .rel.text.phy_register
                0x80874560        0x8 arch/arm/cpu/armv7/start.o
 .rel.text.phy_reset
                0x00000000        0x0 arch/arm/cpu/armv7/start.o
 .rel.text.phy_connect_dev
                0x00000000        0x0 arch/arm/cpu/armv7/start.o
 .rel.text.phy_connect
                0x00000000        0x0 arch/arm/cpu/armv7/start.o
 .rel.text.phy_smsc_init
                0x80874568       0x18 arch/arm/cpu/armv7/start.o
 .rel.data.phy_drivers
                0x80874580       0x10 arch/arm/cpu/armv7/start.o
 .rel.data.genphy_driver
                0x00000000        0x0 arch/arm/cpu/armv7/start.o
 .rel.data.lan8700_driver
                0x80874590       0x20 arch/arm/cpu/armv7/start.o
 .rel.data.lan8710_driver
                0x808745b0       0x20 arch/arm/cpu/armv7/start.o
 .rel.data.lan911x_driver
                0x808745d0       0x20 arch/arm/cpu/armv7/start.o
 .rel.text.get_current
                0x808745f0       0x10 arch/arm/cpu/armv7/start.o
 .rel.text.serial_register
                0x80874600        0x8 arch/arm/cpu/armv7/start.o
 .rel.text.serial_stdio_init
                0x80874608        0x8 arch/arm/cpu/armv7/start.o
 .rel.text.serial_assign
                0x80874610       0x10 arch/arm/cpu/armv7/start.o
 .rel.text.serial_reinit_all
                0x00000000        0x0 arch/arm/cpu/armv7/start.o
 .rel.text.on_baudrate
                0x80874620       0x18 arch/arm/cpu/armv7/start.o
 .rel.text._serial_putc
                0x80874638        0x8 arch/arm/cpu/armv7/start.o
 .rel.text._serial_putc_raw
                0x00000000        0x0 arch/arm/cpu/armv7/start.o
 .rel.text._serial_getc
                0x80874640        0x8 arch/arm/cpu/armv7/start.o
 .rel.text._serial_tstc
                0x80874648        0x8 arch/arm/cpu/armv7/start.o
 .rel.text._serial_setbrg
                0x80874650        0x8 arch/arm/cpu/armv7/start.o
 .rel.text.default_serial_console
                0x80874658        0x8 arch/arm/cpu/armv7/start.o
 .rel.text.ns16550_serial_initialize
                0x80874660       0x30 arch/arm/cpu/armv7/start.o
 .rel.u_boot_list_2_env_clbk_2_baudrate
                0x80874690       0x10 arch/arm/cpu/armv7/start.o
 .rel.data.eserial1_device
                0x808746a0       0x30 arch/arm/cpu/armv7/start.o
 .rel.data.eserial2_device
                0x808746d0       0x30 arch/arm/cpu/armv7/start.o
 .rel.data.eserial3_device
                0x80874700       0x30 arch/arm/cpu/armv7/start.o
 .rel.data.eserial4_device
                0x80874730       0x30 arch/arm/cpu/armv7/start.o
 .rel.data.eserial5_device
                0x80874760       0x30 arch/arm/cpu/armv7/start.o
 .rel.data.eserial6_device
                0x80874790       0x30 arch/arm/cpu/armv7/start.o
 .rel.text.spi_setup_slave
                0x808747c0       0x28 arch/arm/cpu/armv7/start.o
 .rel.text.omap3_spi_write
                0x808747e8        0x8 arch/arm/cpu/armv7/start.o
 .rel.text.omap3_spi_read
                0x808747f0        0x8 arch/arm/cpu/armv7/start.o
 .rel.text.omap3_spi_txrx
                0x808747f8       0x10 arch/arm/cpu/armv7/start.o
 .rel.text.usb_ep_autoconfig
                0x80874808        0x8 arch/arm/cpu/armv7/start.o
 .rel.text.usb_ep_autoconfig_reset
                0x80874810        0x8 arch/arm/cpu/armv7/start.o
 .rel.text.composite_suspend
                0x80874818        0x8 arch/arm/cpu/armv7/start.o
 .rel.text.composite_resume
                0x80874820        0x8 arch/arm/cpu/armv7/start.o
 .rel.text.composite_unbind
                0x80874828       0x28 arch/arm/cpu/armv7/start.o
 .rel.text.composite_bind
                0x80874850       0x10 arch/arm/cpu/armv7/start.o
 .rel.text.g_dnl_do_config
                0x80874860       0x20 arch/arm/cpu/armv7/start.o
 .rel.text.composite_disconnect
                0x80874880        0x8 arch/arm/cpu/armv7/start.o
 .rel.text.composite_setup
                0x80874888       0x78 arch/arm/cpu/armv7/start.o
 .rel.text.usb_composite_register
                0x80874900       0x18 arch/arm/cpu/armv7/start.o
 .rel.text.usb_composite_unregister
                0x80874918       0x10 arch/arm/cpu/armv7/start.o
 .rel.text.g_dnl_bind
                0x80874928       0x28 arch/arm/cpu/armv7/start.o
 .rel.text.g_dnl_register
                0x80874950       0x48 arch/arm/cpu/armv7/start.o
 .rel.text.g_dnl_unregister
                0x80874998        0x8 arch/arm/cpu/armv7/start.o
 .rel.text.dfu_handle
                0x808749a0       0x10 arch/arm/cpu/armv7/start.o
 .rel.text.dnload_request_complete
                0x808749b0        0x8 arch/arm/cpu/armv7/start.o
 .rel.text.state_app_idle
                0x808749b8        0x8 arch/arm/cpu/armv7/start.o
 .rel.text.dfu_bind
                0x808749c0       0x18 arch/arm/cpu/armv7/start.o
 .rel.text.state_dfu_upload_idle
                0x808749d8       0x28 arch/arm/cpu/armv7/start.o
 .rel.text.state_dfu_idle
                0x80874a00       0x48 arch/arm/cpu/armv7/start.o
 .rel.text.state_dfu_dnload_idle
                0x80874a48       0x38 arch/arm/cpu/armv7/start.o
 .rel.text.dfu_add
                0x80874a80       0x50 arch/arm/cpu/armv7/start.o
 .rel.text.tx_complete
                0x80874ad0        0x8 arch/arm/cpu/armv7/start.o
 .rel.text.rndis_command_complete
                0x80874ad8       0x18 arch/arm/cpu/armv7/start.o
 .rel.text.rndis_control_ack_complete
                0x80874af0       0x10 arch/arm/cpu/armv7/start.o
 .rel.text.rndis_control_ack
                0x80874b00       0x18 arch/arm/cpu/armv7/start.o
 .rel.text.nibble
                0x80874b18        0x8 arch/arm/cpu/armv7/start.o
 .rel.text.rx_complete
                0x80874b20        0x8 arch/arm/cpu/armv7/start.o
 .rel.text.usb_eth_send
                0x80874b28       0x38 arch/arm/cpu/armv7/start.o
 .rel.text.set_ether_config.isra.13
                0x80874b60       0x48 arch/arm/cpu/armv7/start.o
 .rel.text.usb_eth_halt
                0x80874ba8       0x28 arch/arm/cpu/armv7/start.o
 .rel.text.rx_submit.constprop.19
                0x80874bd0       0x30 arch/arm/cpu/armv7/start.o
 .rel.text.usb_eth_recv
                0x80874c00       0x30 arch/arm/cpu/armv7/start.o
 .rel.text.eth_setup
                0x80874c30      0x128 arch/arm/cpu/armv7/start.o
 .rel.text.eth_bind
                0x80874d58      0x150 arch/arm/cpu/armv7/start.o
 .rel.text.usb_eth_init
                0x80874ea8       0x80 arch/arm/cpu/armv7/start.o
 .rel.text.usb_eth_initialize
                0x80874f28       0x30 arch/arm/cpu/armv7/start.o
 .rel.text.rndis_add_response
                0x80874f58        0x8 arch/arm/cpu/armv7/start.o
 .rel.text.rndis_signal_connect
                0x80874f60        0x8 arch/arm/cpu/armv7/start.o
 .rel.text.rndis_signal_disconnect
                0x80874f68        0x8 arch/arm/cpu/armv7/start.o
 .rel.text.rndis_set_host_mac
                0x80874f70        0x8 arch/arm/cpu/armv7/start.o
 .rel.text.rndis_get_state
                0x80874f78        0x8 arch/arm/cpu/armv7/start.o
 .rel.text.rndis_msg_parser
                0x80874f80       0x48 arch/arm/cpu/armv7/start.o
 .rel.text.rndis_register
                0x80874fc8        0x8 arch/arm/cpu/armv7/start.o
 .rel.text.rndis_deregister
                0x80874fd0        0x8 arch/arm/cpu/armv7/start.o
 .rel.text.rndis_set_param_dev
                0x80874fd8        0x8 arch/arm/cpu/armv7/start.o
 .rel.text.rndis_set_param_vendor
                0x80874fe0        0x8 arch/arm/cpu/armv7/start.o
 .rel.text.rndis_set_param_medium
                0x80874fe8        0x8 arch/arm/cpu/armv7/start.o
 .rel.text.rndis_free_response
                0x80874ff0        0x8 arch/arm/cpu/armv7/start.o
 .rel.text.rndis_get_next_response
                0x80874ff8        0x8 arch/arm/cpu/armv7/start.o
 .rel.text.rndis_uninit
                0x80875000        0x8 arch/arm/cpu/armv7/start.o
 .rel.text.rndis_init
                0x80875008        0x8 arch/arm/cpu/armv7/start.o
 .rel.rodata.dfu_state
                0x80875010       0x48 arch/arm/cpu/armv7/start.o
 .rel.data.g_dnl_composite_strings
                0x80875058        0x8 arch/arm/cpu/armv7/start.o
 .rel.data.g_dnl_string_tab
                0x80875060        0x8 arch/arm/cpu/armv7/start.o
 .rel.data.g_dnl_driver
                0x80875068       0x20 arch/arm/cpu/armv7/start.o
 .rel.data.composite_driver
                0x80875088       0x30 arch/arm/cpu/armv7/start.o
 .rel.data.g_dnl_string_defs
                0x808750b8       0x10 arch/arm/cpu/armv7/start.o
 .rel.data.dfu_strings
                0x808750c8        0x8 arch/arm/cpu/armv7/start.o
 .rel.data.stringtab_dfu_generic
                0x808750d0        0x8 arch/arm/cpu/armv7/start.o
 .rel.data.dfu_generic_strings
                0x808750d8        0x8 arch/arm/cpu/armv7/start.o
 .rel.data.dfu_runtime_descs
                0x808750e0        0x8 arch/arm/cpu/armv7/start.o
 .rel.data.strings_dfu_generic
                0x808750e8        0x8 arch/arm/cpu/armv7/start.o
 .rel.data.strings
                0x808750f0       0x38 arch/arm/cpu/armv7/start.o
 .rel.data.eth_driver
                0x80875128       0x30 arch/arm/cpu/armv7/start.o
 .rel.data.fs_rndis_function
                0x80875158       0x50 arch/arm/cpu/armv7/start.o
 .rel.data.hs_rndis_function
                0x808751a8       0x50 arch/arm/cpu/armv7/start.o
 .rel.data.hs_eth_function
                0x808751f8        0x8 arch/arm/cpu/armv7/start.o
 .rel.data.fs_eth_function
                0x80875200        0x8 arch/arm/cpu/armv7/start.o
 .rel.data.stringtab
                0x80875208        0x8 arch/arm/cpu/armv7/start.o
 .rel.text.musb_load_testpacket
                0x80875210        0x8 arch/arm/cpu/armv7/start.o
 .rel.text.musb_init_controller
                0x80875218       0xf0 arch/arm/cpu/armv7/start.o
 .rel.text.dsps_musb_init
                0x80875308        0x8 arch/arm/cpu/armv7/start.o
 .rel.text.init_peripheral_ep
                0x80875310       0x30 arch/arm/cpu/armv7/start.o
 .rel.text.musb_gadget_setup
                0x80875340       0x10 arch/arm/cpu/armv7/start.o
 .rel.text.musb_g_ep0_irq
                0x80875350       0xb0 arch/arm/cpu/armv7/start.o
 .rel.text.musb_h_ep0_flush_fifo
                0x80875400        0x8 arch/arm/cpu/armv7/start.o
 .rel.text.musb_h_tx_flush_fifo
                0x80875408        0x8 arch/arm/cpu/armv7/start.o
 .rel.text.musb_start_urb
                0x80875410       0x20 arch/arm/cpu/armv7/start.o
 .rel.text.musb_advance_schedule
                0x80875430       0x20 arch/arm/cpu/armv7/start.o
 .rel.text.musb_h_ep0_irq
                0x80875450       0x20 arch/arm/cpu/armv7/start.o
 .rel.text.musb_host_rx
                0x80875470       0x10 arch/arm/cpu/armv7/start.o
 .rel.text.construct_urb
                0x80875480       0x18 arch/arm/cpu/armv7/start.o
 .rel.text.submit_urb.constprop.0
                0x80875498       0x10 arch/arm/cpu/armv7/start.o
 .rel.text.submit_control_msg
                0x808754a8        0x8 arch/arm/cpu/armv7/start.o
 .rel.text.usb_lowlevel_init
                0x808754b0       0x20 arch/arm/cpu/armv7/start.o
 .rel.text.usb_lowlevel_stop
                0x808754d0       0x10 arch/arm/cpu/armv7/start.o
 .rel.text.usb_gadget_handle_interrupts
                0x808754e0        0x8 arch/arm/cpu/armv7/start.o
 .rel.text.usb_gadget_register_driver
                0x808754e8       0x28 arch/arm/cpu/armv7/start.o
 .rel.text.musb_register
                0x80875510       0x10 arch/arm/cpu/armv7/start.o
 .rel.rodata.musb_ep_ops
                0x80875520       0x48 arch/arm/cpu/armv7/start.o
 .rel.rodata.musb_gadget_operations
                0x80875568       0x28 arch/arm/cpu/armv7/start.o
 .rel.rodata.musb_g_ep0_ops
                0x80875590       0x38 arch/arm/cpu/armv7/start.o
 .rel.rodata.CSWTCH.16
                0x808755c8       0x38 arch/arm/cpu/armv7/start.o
 .rel.data.musb_dsps_ops
                0x80875600       0x20 arch/arm/cpu/armv7/start.o
 .rel.text.get_fs
                0x80875620        0x8 arch/arm/cpu/armv7/start.o
 .rel.text.ext4fs_free_node
                0x80875628        0x8 arch/arm/cpu/armv7/start.o
 .rel.text.ext4fs_read_file
                0x80875630        0x8 arch/arm/cpu/armv7/start.o
 .rel.text.ext4fs_ls
                0x80875638       0x10 arch/arm/cpu/armv7/start.o
 .rel.text.ext4fs_read
                0x80875648       0x10 arch/arm/cpu/armv7/start.o
 .rel.text.ext4_read_file
                0x80875658       0x10 arch/arm/cpu/armv7/start.o
 .rel.text.read_allocated_block
                0x80875668       0xb8 arch/arm/cpu/armv7/start.o
 .rel.text.ext4fs_close
                0x80875720       0x58 arch/arm/cpu/armv7/start.o
 .rel.text.ext4fs_iterate_dir
                0x80875778       0x28 arch/arm/cpu/armv7/start.o
 .rel.text.ext4fs_find_file1
                0x808757a0       0x10 arch/arm/cpu/armv7/start.o
 .rel.text.ext4fs_find_file
                0x808757b0        0x8 arch/arm/cpu/armv7/start.o
 .rel.text.ext4fs_open
                0x808757b8       0x10 arch/arm/cpu/armv7/start.o
 .rel.text.ext4fs_mount
                0x808757c8       0x10 arch/arm/cpu/armv7/start.o
 .rel.text.ext4fs_set_blk_dev
                0x808757d8       0x18 arch/arm/cpu/armv7/start.o
 .rel.text.ext4fs_devread
                0x808757f0       0x38 arch/arm/cpu/armv7/start.o
 .rel.text.downcase
                0x80875828        0x8 arch/arm/cpu/armv7/start.o
 .rel.text.disk_read
                0x80875830       0x10 arch/arm/cpu/armv7/start.o
 .rel.text.check_overflow
                0x80875840       0x10 arch/arm/cpu/armv7/start.o
 .rel.text.disk_write
                0x80875850       0x20 arch/arm/cpu/armv7/start.o
 .rel.text.flush_fat_buffer
                0x80875870        0x8 arch/arm/cpu/armv7/start.o
 .rel.text.get_cluster
                0x80875878        0x8 arch/arm/cpu/armv7/start.o
 .rel.text.read_bootsectandvi
                0x80875880       0x20 arch/arm/cpu/armv7/start.o
 .rel.text.set_name
                0x808758a0        0x8 arch/arm/cpu/armv7/start.o
 .rel.text.get_vfatname
                0x808758a8       0x10 arch/arm/cpu/armv7/start.o
 .rel.text.flush_dir_table.constprop.7
                0x808758b8       0x20 arch/arm/cpu/armv7/start.o
 .rel.text.do_fat_write
                0x808758d8       0x80 arch/arm/cpu/armv7/start.o
 .rel.text.fat_set_blk_dev
                0x80875958       0x28 arch/arm/cpu/armv7/start.o
 .rel.text.fat_register_device
                0x00000000        0x0 arch/arm/cpu/armv7/start.o
 .rel.text.do_fat_read_at
                0x80875980       0x58 arch/arm/cpu/armv7/start.o
 .rel.text.file_fat_detectfs
                0x808759d8       0xb0 arch/arm/cpu/armv7/start.o
 .rel.text.file_fat_read_at
                0x80875a88        0x8 arch/arm/cpu/armv7/start.o
 .rel.text.fat_read_file
                0x80875a90        0x8 arch/arm/cpu/armv7/start.o
 .rel.text.file_fat_write
                0x80875a98        0x8 arch/arm/cpu/armv7/start.o
 .rel.text.file_getfsname
                0x00000000        0x0 arch/arm/cpu/armv7/start.o
 .rel.text.file_cd
                0x00000000        0x0 arch/arm/cpu/armv7/start.o
 .rel.text.file_detectfs
                0x00000000        0x0 arch/arm/cpu/armv7/start.o
 .rel.text.file_ls
                0x00000000        0x0 arch/arm/cpu/armv7/start.o
 .rel.text.file_read
                0x00000000        0x0 arch/arm/cpu/armv7/start.o
 .rel.rodata.filesystems
                0x00000000        0x0 arch/arm/cpu/armv7/start.o
 .rel.text.fs_probe_unsupported
                0x80875aa0        0x8 arch/arm/cpu/armv7/start.o
 .rel.text.fs_get_info
                0x80875aa8        0x8 arch/arm/cpu/armv7/start.o
 .rel.text.fs_close
                0x80875ab0        0x8 arch/arm/cpu/armv7/start.o
 .rel.text.fs_set_blk_dev
                0x80875ab8       0x20 arch/arm/cpu/armv7/start.o
 .rel.text.fs_ls
                0x80875ad8        0x8 arch/arm/cpu/armv7/start.o
 .rel.text.fs_read
                0x80875ae0       0x10 arch/arm/cpu/armv7/start.o
 .rel.text.fs_write
                0x00000000        0x0 arch/arm/cpu/armv7/start.o
 .rel.text.do_load
                0x80875af0       0x48 arch/arm/cpu/armv7/start.o
 .rel.text.do_ls
                0x80875b38        0x8 arch/arm/cpu/armv7/start.o
 .rel.text.do_save
                0x00000000        0x0 arch/arm/cpu/armv7/start.o
 .rel.data.fstypes
                0x80875b40       0x68 arch/arm/cpu/armv7/start.o
 .rel.text.ubifs_findfile
                0x80875ba8       0x30 arch/arm/cpu/armv7/start.o
 .rel.text.ubifs_decompress
                0x80875bd8       0x28 arch/arm/cpu/armv7/start.o
 .rel.text.read_block
                0x80875c00       0x10 arch/arm/cpu/armv7/start.o
 .rel.text.ubifs_compressors_init
                0x80875c10       0x20 arch/arm/cpu/armv7/start.o
 .rel.text.ubifs_ls
                0x80875c30       0x90 arch/arm/cpu/armv7/start.o
 .rel.text.ubifs_load
                0x80875cc0       0x50 arch/arm/cpu/armv7/start.o
 .rel.text.ubifs_ro_mode
                0x00000000        0x0 arch/arm/cpu/armv7/start.o
 .rel.text.ubifs_check_node
                0x80875d10       0x30 arch/arm/cpu/armv7/start.o
 .rel.text.ubifs_prepare_node
                0x00000000        0x0 arch/arm/cpu/armv7/start.o
 .rel.text.ubifs_read_node
                0x80875d40       0x30 arch/arm/cpu/armv7/start.o
 .rel.text.iput
                0x80875d70       0x18 arch/arm/cpu/armv7/start.o
 .rel.text.ubifs_iget
                0x80875d88       0x48 arch/arm/cpu/armv7/start.o
 .rel.text.ubifs_umount
                0x80875dd0        0x8 arch/arm/cpu/armv7/start.o
 .rel.text.ubifs_get_sb
                0x80875dd8      0x118 arch/arm/cpu/armv7/start.o
 .rel.text.ubifs_mount
                0x80875ef0       0x28 arch/arm/cpu/armv7/start.o
 .rel.text.ubifs_read_superblock
                0x80875f18       0x70 arch/arm/cpu/armv7/start.o
 .rel.text.ubifs_read_master
                0x80875f88       0x20 arch/arm/cpu/armv7/start.o
 .rel.text.ubifs_calc_lpt_geom
                0x80875fa8       0x18 arch/arm/cpu/armv7/start.o
 .rel.text.ubifs_unpack_bits
                0x80875fc0       0x40 arch/arm/cpu/armv7/start.o
 .rel.text.check_lpt_type
                0x80876000       0x10 arch/arm/cpu/armv7/start.o
 .rel.text.check_lpt_crc
                0x80876010       0x10 arch/arm/cpu/armv7/start.o
 .rel.text.ubifs_read_nnode
                0x80876020       0x10 arch/arm/cpu/armv7/start.o
 .rel.text.ubifs_get_pnode
                0x80876030       0x10 arch/arm/cpu/armv7/start.o
 .rel.text.ubifs_scan_a_node
                0x80876040       0x10 arch/arm/cpu/armv7/start.o
 .rel.text.ubifs_start_scan
                0x80876050       0x10 arch/arm/cpu/armv7/start.o
 .rel.text.ubifs_scanned_corruption
                0x80876060       0x10 arch/arm/cpu/armv7/start.o
 .rel.text.ubifs_scan
                0x80876070       0x18 arch/arm/cpu/armv7/start.o
 .rel.text.ubifs_add_to_cat
                0x80876088       0x38 arch/arm/cpu/armv7/start.o
 .rel.text.insert_old_idx
                0x808760c0       0x10 arch/arm/cpu/armv7/start.o
 .rel.text.fallible_read_node
                0x808760d0       0x10 arch/arm/cpu/armv7/start.o
 .rel.text.ubifs_tnc_bulk_read
                0x00000000        0x0 arch/arm/cpu/armv7/start.o
 .rel.text.ubifs_tnc_add_nm
                0x808760e0        0x8 arch/arm/cpu/armv7/start.o
 .rel.text.ubifs_load_znode
                0x808760e8       0x10 arch/arm/cpu/armv7/start.o
 .rel.text.ubifs_tnc_read_node
                0x808760f8       0x10 arch/arm/cpu/armv7/start.o
 .rel.text.crc16
                0x80876108        0x8 arch/arm/cpu/armv7/start.o
 .rel.text.ubifs_clear_orphans
                0x80876110       0x10 arch/arm/cpu/armv7/start.o
 .rel.text.ubifs_mount_orphans
                0x80876120       0x18 arch/arm/cpu/armv7/start.o
 .rel.text.recover_head
                0x00000000        0x0 arch/arm/cpu/armv7/start.o
 .rel.text.ubifs_recover_master_node
                0x80876138       0x10 arch/arm/cpu/armv7/start.o
 .rel.text.ubifs_recover_leb
                0x80876148       0x18 arch/arm/cpu/armv7/start.o
 .rel.text.ubifs_recover_log_leb
                0x80876160       0x20 arch/arm/cpu/armv7/start.o
 .rel.text.ubifs_clean_lebs
                0x00000000        0x0 arch/arm/cpu/armv7/start.o
 .rel.text.insert_node
                0x80876180       0x10 arch/arm/cpu/armv7/start.o
 .rel.text.ubifs_validate_entry
                0x80876190       0x28 arch/arm/cpu/armv7/start.o
 .rel.text.ubifs_replay_journal
                0x808761b8       0xc8 arch/arm/cpu/armv7/start.o
 .rel.data.lzo_compr
                0x80876280       0x18 arch/arm/cpu/armv7/start.o
 .rel.data.none_compr
                0x80876298       0x10 arch/arm/cpu/armv7/start.o
 .rel.data.zlib_compr
                0x808762a8       0x18 arch/arm/cpu/armv7/start.o
 .rel.data.ubifs_fs_type
                0x808762c0       0x10 arch/arm/cpu/armv7/start.o
 .rel.text.fdt_next_tag
                0x808762d0       0x48 arch/arm/cpu/armv7/start.o
 .rel.text.fdt_create_empty_tree
                0x00000000        0x0 arch/arm/cpu/armv7/start.o
 .rel.text.fdt_get_phandle
                0x00000000        0x0 arch/arm/cpu/armv7/start.o
 .rel.text.fdt_get_alias_namelen
                0x80876318        0x8 arch/arm/cpu/armv7/start.o
 .rel.text.fdt_node_check_compatible
                0x00000000        0x0 arch/arm/cpu/armv7/start.o
 .rel.text.fdt_strerror
                0x80876320       0x20 arch/arm/cpu/armv7/start.o
 .rel.text.fdt_find_regions
                0x00000000        0x0 arch/arm/cpu/armv7/start.o
 .rel.rodata.fdt_errtable
                0x80876340       0x58 arch/arm/cpu/armv7/start.o
 .rel.text.cyg_crc16
                0x80876398        0x8 arch/arm/cpu/armv7/start.o
 .rel.text.crc32_no_comp
                0x808763a0        0x8 arch/arm/cpu/armv7/start.o
 .rel.text.crc7
                0x00000000        0x0 arch/arm/cpu/armv7/start.o
 .rel.text.display_options
                0x00000000        0x0 arch/arm/cpu/armv7/start.o
 .rel.text.print_size
                0x808763a8       0x28 arch/arm/cpu/armv7/start.o
 .rel.text.print_buffer
                0x808763d0       0x28 arch/arm/cpu/armv7/start.o
 .rel.text.zunzip
                0x808763f8       0x28 arch/arm/cpu/armv7/start.o
 .rel.text.gunzip
                0x80876420       0x10 arch/arm/cpu/armv7/start.o
 .rel.text.hang
                0x80876430        0x8 arch/arm/cpu/armv7/start.o
 .rel.text.match_string.isra.3
                0x80876438        0x8 arch/arm/cpu/armv7/start.o
 .rel.text.hcreate_r
                0x80876440        0x8 arch/arm/cpu/armv7/start.o
 .rel.text.hdestroy_r
                0x80876448        0x8 arch/arm/cpu/armv7/start.o
 .rel.text.hmatch_r
                0x80876450        0x8 arch/arm/cpu/armv7/start.o
 .rel.text.hsearch_r
                0x80876458        0x8 arch/arm/cpu/armv7/start.o
 .rel.text.hdelete_r
                0x80876460        0x8 arch/arm/cpu/armv7/start.o
 .rel.text.hexport_r
                0x80876468       0x18 arch/arm/cpu/armv7/start.o
 .rel.text.himport_r
                0x80876480       0x20 arch/arm/cpu/armv7/start.o
 .rel.text.skip_spaces
                0x808764a0        0x8 arch/arm/cpu/armv7/start.o
 .rel.text.strim
                0x808764a8        0x8 arch/arm/cpu/armv7/start.o
 .rel.text.lmb_alloc_base
                0x808764b0        0x8 arch/arm/cpu/armv7/start.o
 .rel.text.strncasecmp
                0x00000000        0x0 arch/arm/cpu/armv7/start.o
 .rel.text.strtok
                0x00000000        0x0 arch/arm/cpu/armv7/start.o
 .rel.text.strmhz
                0x00000000        0x0 arch/arm/cpu/armv7/start.o
 .rel.text.string.isra.0
                0x808764b8        0x8 arch/arm/cpu/armv7/start.o
 .rel.text.number.isra.4
                0x808764c0        0x8 arch/arm/cpu/armv7/start.o
 .rel.text.vsnprintf_internal.isra.6
                0x808764c8       0x10 arch/arm/cpu/armv7/start.o
 .rel.text.simple_strtoul
                0x808764d8        0x8 arch/arm/cpu/armv7/start.o
 .rel.text.simple_strtoull
                0x808764e0        0x8 arch/arm/cpu/armv7/start.o
 .rel.text.__assert_fail
                0x00000000        0x0 arch/arm/cpu/armv7/start.o
 .rel.text.simple_itoa
                0x808764e8        0x8 arch/arm/cpu/armv7/start.o
 .rel.text.print_grouped_ull
                0x00000000        0x0 arch/arm/cpu/armv7/start.o
 .rel.text.lzop_decompress
                0x808764f0        0x8 arch/arm/cpu/armv7/start.o
 .rel.text.inflate_fast
                0x808764f8       0x18 arch/arm/cpu/armv7/start.o
 .rel.text.inflate_table
                0x80876510       0x20 arch/arm/cpu/armv7/start.o
 .rel.text.inflateInit2_
                0x80876530       0x10 arch/arm/cpu/armv7/start.o
 .rel.text.inflate
                0x80876540      0x188 arch/arm/cpu/armv7/start.o
 .rel.rodata.z_errmsg
                0x00000000        0x0 arch/arm/cpu/armv7/start.o
 .rel.text.ArpInit
                0x808766c8       0x30 arch/arm/cpu/armv7/start.o
 .rel.text.arp_raw_request
                0x808766f8       0x18 arch/arm/cpu/armv7/start.o
 .rel.text.ArpRequest
                0x80876710       0x38 arch/arm/cpu/armv7/start.o
 .rel.text.ArpTimeoutCheck
                0x80876748       0x20 arch/arm/cpu/armv7/start.o
 .rel.text.ArpReceive
                0x80876768       0x40 arch/arm/cpu/armv7/start.o
 .rel.text.DhcpExtended
                0x808767a8        0x8 arch/arm/cpu/armv7/start.o
 .rel.text.DhcpOptionsProcess
                0x808767b0       0x70 arch/arm/cpu/armv7/start.o
 .rel.text.DhcpHandler
                0x80876820       0x78 arch/arm/cpu/armv7/start.o
 .rel.text.BootpRequest
                0x80876898       0x50 arch/arm/cpu/armv7/start.o
 .rel.text.BootpTimeout
                0x808768e8       0x18 arch/arm/cpu/armv7/start.o
 .rel.text.eth_current_changed
                0x80876900       0x10 arch/arm/cpu/armv7/start.o
 .rel.text.eth_setenv_enetaddr
                0x80876910        0x8 arch/arm/cpu/armv7/start.o
 .rel.text.eth_getenv_enetaddr_by_index
                0x80876918       0x10 arch/arm/cpu/armv7/start.o
 .rel.text.eth_get_dev_by_name
                0x00000000        0x0 arch/arm/cpu/armv7/start.o
 .rel.text.eth_get_dev_by_index
                0x80876928        0x8 arch/arm/cpu/armv7/start.o
 .rel.text.eth_get_dev_index
                0x80876930        0x8 arch/arm/cpu/armv7/start.o
 .rel.text.eth_write_hwaddr
                0x80876938       0x48 arch/arm/cpu/armv7/start.o
 .rel.text.eth_register
                0x80876980       0x18 arch/arm/cpu/armv7/start.o
 .rel.text.eth_unregister
                0x00000000        0x0 arch/arm/cpu/armv7/start.o
 .rel.text.eth_initialize
                0x80876998       0x90 arch/arm/cpu/armv7/start.o
 .rel.text.eth_halt
                0x80876a28        0x8 arch/arm/cpu/armv7/start.o
 .rel.text.eth_send
                0x80876a30        0x8 arch/arm/cpu/armv7/start.o
 .rel.text.eth_rx
                0x80876a38        0x8 arch/arm/cpu/armv7/start.o
 .rel.text.eth_try_another
                0x80876a40       0x28 arch/arm/cpu/armv7/start.o
 .rel.text.eth_init
                0x80876a68       0x20 arch/arm/cpu/armv7/start.o
 .rel.text.eth_set_current
                0x80876a88       0x20 arch/arm/cpu/armv7/start.o
 .rel.text.eth_get_name
                0x80876aa8       0x10 arch/arm/cpu/armv7/start.o
 .rel.text.startAgainTimeout
                0x80876ab8        0x8 arch/arm/cpu/armv7/start.o
 .rel.text.net_clear_handlers
                0x80876ac0       0x20 arch/arm/cpu/armv7/start.o
 .rel.text.net_auto_load
                0x80876ae0       0x18 arch/arm/cpu/armv7/start.o
 .rel.text.NetStartAgain
                0x80876af8       0x78 arch/arm/cpu/armv7/start.o
 .rel.text.net_get_udp_handler
                0x00000000        0x0 arch/arm/cpu/armv7/start.o
 .rel.text.net_set_udp_handler
                0x80876b70       0x10 arch/arm/cpu/armv7/start.o
 .rel.text.net_get_arp_handler
                0x80876b80        0x8 arch/arm/cpu/armv7/start.o
 .rel.text.net_set_arp_handler
                0x00000000        0x0 arch/arm/cpu/armv7/start.o
 .rel.text.NetSetTimeout
                0x80876b88       0x18 arch/arm/cpu/armv7/start.o
 .rel.text.NetReceive
                0x80876ba0       0x38 arch/arm/cpu/armv7/start.o
 .rel.text.NetEthHdrSize
                0x80876bd8        0x8 arch/arm/cpu/armv7/start.o
 .rel.text.NetSetEther
                0x80876be0       0x10 arch/arm/cpu/armv7/start.o
 .rel.text.net_update_ether
                0x80876bf0        0x8 arch/arm/cpu/armv7/start.o
 .rel.text.net_set_ip_header
                0x80876bf8        0x8 arch/arm/cpu/armv7/start.o
 .rel.text.net_set_udp_header
                0x80876c00        0x8 arch/arm/cpu/armv7/start.o
 .rel.text.NetSendUDPPacket
                0x80876c08       0x40 arch/arm/cpu/armv7/start.o
 .rel.text.on_bootfile
                0x80876c48        0x8 arch/arm/cpu/armv7/start.o
 .rel.text.ip_to_string
                0x80876c50        0x8 arch/arm/cpu/armv7/start.o
 .rel.text.VLAN_to_string
                0x00000000        0x0 arch/arm/cpu/armv7/start.o
 .rel.text.NetInitLoop
                0x80876c58       0x78 arch/arm/cpu/armv7/start.o
 .rel.text.net_init
                0x80876cd0       0x20 arch/arm/cpu/armv7/start.o
 .rel.text.NetLoop
                0x80876cf0      0x188 arch/arm/cpu/armv7/start.o
 .rel.text.rpc_lookup_reply
                0x80876e78       0x18 arch/arm/cpu/armv7/start.o
 .rel.text.nfs_mount_reply
                0x80876e90       0x18 arch/arm/cpu/armv7/start.o
 .rel.text.nfs_umountall_reply
                0x80876ea8       0x18 arch/arm/cpu/armv7/start.o
 .rel.text.nfs_lookup_reply
                0x80876ec0       0x10 arch/arm/cpu/armv7/start.o
 .rel.text.nfs_readlink_reply
                0x80876ed0       0x18 arch/arm/cpu/armv7/start.o
 .rel.text.rpc_add_credentials
                0x80876ee8        0x8 arch/arm/cpu/armv7/start.o
 .rel.text.rpc_req
                0x80876ef0       0x38 arch/arm/cpu/armv7/start.o
 .rel.text.nfs_umountall_req
                0x80876f28       0x10 arch/arm/cpu/armv7/start.o
 .rel.text.nfs_lookup_req
                0x80876f38        0x8 arch/arm/cpu/armv7/start.o
 .rel.text.nfs_read_req
                0x80876f40        0x8 arch/arm/cpu/armv7/start.o
 .rel.text.nfs_readlink_req
                0x80876f48        0x8 arch/arm/cpu/armv7/start.o
 .rel.text.nfs_read_reply.isra.0
                0x80876f50       0x28 arch/arm/cpu/armv7/start.o
 .rel.text.NfsSend
                0x80876f78       0x60 arch/arm/cpu/armv7/start.o
 .rel.text.NfsHandler
                0x80876fd8       0xa8 arch/arm/cpu/armv7/start.o
 .rel.text.NfsTimeout
                0x80877080       0x20 arch/arm/cpu/armv7/start.o
 .rel.text.NfsStart
                0x808770a0       0xe0 arch/arm/cpu/armv7/start.o
 .rel.text.ping_timeout
                0x80877180        0x8 arch/arm/cpu/armv7/start.o
 .rel.text.ping_start
                0x80877188       0x58 arch/arm/cpu/armv7/start.o
 .rel.text.ping_receive
                0x808771e0       0x18 arch/arm/cpu/armv7/start.o
 .rel.text.TftpSend
                0x808771f8       0xb8 arch/arm/cpu/armv7/start.o
 .rel.text.TftpHandler
                0x808772b0       0xc0 arch/arm/cpu/armv7/start.o
 .rel.text.TftpTimeout
                0x80877370       0x40 arch/arm/cpu/armv7/start.o
 .rel.text.TftpStart
                0x808773b0      0x130 arch/arm/cpu/armv7/start.o
 .rel.u_boot_list_2_env_clbk_2_bootfile
                0x808774e0       0x10 arch/arm/cpu/armv7/start.o
 .rel.text.raise
                0x808774f0        0x8 arch/arm/cpu/armv7/start.o

.rel_dyn_end    0x808774f8        0x0
 *(.__rel_dyn_end)
 .__rel_dyn_end
                0x808774f8        0x0 arch/arm/lib/libarm.o
                0x808774f8                _end = .
                0x80878000                . = ALIGN (0x1000)

.mmutable
 *(.mmutable)

.bss_start      0x8086d1f0        0x0
 *(.__bss_start)
 .__bss_start   0x8086d1f0        0x0 arch/arm/lib/libarm.o
                0x8086d1f0                __bss_start
                0x8086d1f0                __bss_base = .

.bss            0x8086d1f0   0x84c448
 *(.bss*)
 .bss.gpmc_cfg  0x8086d1f0        0x4 arch/arm/cpu/armv7/omap-common/libomap-common.o
                0x8086d1f0                gpmc_cfg
 .bss.monitor_flash_len
                0x8086d1f4        0x4 arch/arm/lib/libarm.o
                0x8086d1f4                monitor_flash_len
 .bss.params    0x8086d1f8        0x4 arch/arm/lib/libarm.o
 .bss.images    0x8086d1fc      0x130 common/libcommon.o
                0x8086d1fc                images
 .bss.working_fdt
                0x8086d32c        0x4 common/libcommon.o
                0x8086d32c                working_fdt
 .bss.data.6792
                0x8086d330      0x400 common/libcommon.o
 .bss.i2c_mm_last_addr
                0x8086d730        0x4 common/libcommon.o
 .bss.i2c_mm_last_chip
                0x8086d734        0x1 common/libcommon.o
 *fill*         0x8086d735        0x3 
 .bss.i2c_mm_last_alen
                0x8086d738        0x4 common/libcommon.o
 .bss.i2c_dp_last_chip
                0x8086d73c        0x1 common/libcommon.o
 *fill*         0x8086d73d        0x3 
 .bss.i2c_dp_last_addr
                0x8086d740        0x4 common/libcommon.o
 .bss.i2c_dp_last_alen
                0x8086d744        0x4 common/libcommon.o
 .bss.ColTable_txt
                0x8086d748      0x200 common/libcommon.o
 .bss.send_parms
                0x8086d948       0x14 common/libcommon.o
 .bss.os_data_init
                0x8086d95c        0x4 common/libcommon.o
 .bss.os_data_addr_saved
                0x8086d960        0x4 common/libcommon.o
 .bss.his_pad_char
                0x8086d964        0x1 common/libcommon.o
 .bss.a_b       0x8086d965       0x18 common/libcommon.o
 *fill*         0x8086d97d        0x3 
 .bss.os_data_char
                0x8086d980        0x4 common/libcommon.o
 .bss.os_data_state
                0x8086d984        0x4 common/libcommon.o
 .bss.k_data_escape
                0x8086d988        0x4 common/libcommon.o
 .bss.os_data_state_saved
                0x8086d98c        0x4 common/libcommon.o
 .bss.os_data_addr
                0x8086d990        0x4 common/libcommon.o
 .bss.send_ptr  0x8086d994        0x4 common/libcommon.o
 .bss.bin_start_address
                0x8086d998        0x4 common/libcommon.o
 .bss.his_quote
                0x8086d99c        0x1 common/libcommon.o
 *fill*         0x8086d99d        0x3 
 .bss.his_pad_count
                0x8086d9a0        0x4 common/libcommon.o
 .bss.his_eol   0x8086d9a4        0x1 common/libcommon.o
 *fill*         0x8086d9a5        0x3 
 .bss.k_data_escape_saved
                0x8086d9a8        0x4 common/libcommon.o
 .bss.last_reg_hi
                0x8086d9ac        0x8 common/libcommon.o
 .bss.last_data
                0x8086d9b4        0x8 common/libcommon.o
 .bss.last_devad_hi
                0x8086d9bc        0x4 common/libcommon.o
 .bss.last_reg_lo
                0x8086d9c0        0x8 common/libcommon.o
 .bss.last_addr_lo
                0x8086d9c8        0x8 common/libcommon.o
 .bss.last_op   0x8086d9d0        0x4 common/libcommon.o
 .bss.last_addr_hi
                0x8086d9d4        0x8 common/libcommon.o
 .bss.last_devad_lo
                0x8086d9dc        0x4 common/libcommon.o
 .bss.dp_last_addr
                0x8086d9e0        0x4 common/libcommon.o
 .bss.base_address
                0x8086d9e4        0x4 common/libcommon.o
 .bss.mm_last_size
                0x8086d9e8        0x4 common/libcommon.o
 .bss.mm_last_addr
                0x8086d9ec        0x4 common/libcommon.o
 .bss.dp_last_size
                0x8086d9f0        0x4 common/libcommon.o
 .bss.last_ids  0x8086d9f4       0x80 common/libcommon.o
 .bss.initialized.7471
                0x8086da74        0x4 common/libcommon.o
 .bss.current_mtd_dev
                0x8086da78        0x4 common/libcommon.o
                0x8086da78                current_mtd_dev
 .bss.last_partition
                0x8086da7c       0x10 common/libcommon.o
 .bss.last_parts
                0x8086da8c      0x200 common/libcommon.o
 .bss.current_mtd_partnum
                0x8086dc8c        0x1 common/libcommon.o
                0x8086dc8c                current_mtd_partnum
 *fill*         0x8086dc8d        0x3 
 .bss.mtdids    0x8086dc90        0x8 common/libcommon.o
 .bss.devices   0x8086dc98        0x8 common/libcommon.o
 *fill*         0x8086dca0        0x0 
 .bss.last.7211
                0x8086dca0        0x8 common/libcommon.o
 .bss.flash     0x8086dca8        0x4 common/libcommon.o
 .bss.bus       0x8086dcac        0x4 common/libcommon.o
 .bss.cs        0x8086dcb0        0x4 common/libcommon.o
 .bss.bitlen    0x8086dcb4        0x4 common/libcommon.o
 .bss.dout      0x8086dcb8       0x20 common/libcommon.o
 .bss.din       0x8086dcd8       0x20 common/libcommon.o
 .bss.mode      0x8086dcf8        0x4 common/libcommon.o
 .bss.ubi       0x8086dcfc        0x4 common/libcommon.o
 .bss.ubi_dev   0x8086dd00       0x5c common/libcommon.o
 .bss.ubi_initialized
                0x8086dd5c        0x4 common/libcommon.o
 .bss.buffer    0x8086dd60       0x50 common/libcommon.o
 .bss.ubifs_initialized
                0x8086ddb0        0x4 common/libcommon.o
 .bss.ubifs_mounted
                0x8086ddb4        0x4 common/libcommon.o
 .bss.tmp_buf   0x8086ddb8      0x200 common/libcommon.o
 .bss.tmp_buf.6132
                0x8086dfb8      0x200 common/libcommon.o
 .bss.ctrlc_was_pressed
                0x8086e1b8        0x4 common/libcommon.o
 .bss.ctrlc_disabled
                0x8086e1bc        0x4 common/libcommon.o
 .bss.max_total_mem
                0x8086e1c0        0x4 common/libcommon.o
 .bss.mem_malloc_brk
                0x8086e1c4        0x4 common/libcommon.o
                0x8086e1c4                mem_malloc_brk
 .bss.max_sbrked_mem
                0x8086e1c8        0x4 common/libcommon.o
 .bss.current_mallinfo
                0x8086e1cc       0x28 common/libcommon.o
 .bss.mem_malloc_end
                0x8086e1f4        0x4 common/libcommon.o
                0x8086e1f4                mem_malloc_end
 .bss.top_pad   0x8086e1f8        0x4 common/libcommon.o
 .bss.mem_malloc_start
                0x8086e1fc        0x4 common/libcommon.o
                0x8086e1fc                mem_malloc_start
 .bss.env_ptr   0x8086e200        0x4 common/libcommon.o
                0x8086e200                env_ptr
 .bss.env_flags
                0x8086e204        0x1 common/libcommon.o
 *fill*         0x8086e205        0x3 
 .bss.flag_repeat
                0x8086e208        0x4 common/libcommon.o
 .bss.ifs       0x8086e20c        0x4 common/libcommon.o
 .bss.the_command.6322
                0x8086e210      0x200 common/libcommon.o
 .bss.last_return_code
                0x8086e410        0x4 common/libcommon.o
 .bss.map       0x8086e414      0x100 common/libcommon.o
 .bss.do_repeat
                0x8086e514        0x4 common/libcommon.o
 .bss.buf.6522  0x8086e518       0x28 common/libcommon.o
 .bss.top_vars  0x8086e540        0x4 common/libcommon.o
 .bss.hist_list
                0x8086e544       0x50 common/libcommon.o
 .bss.hist_lines
                0x8086e594     0x2814 common/libcommon.o
 .bss.hist_max  0x80870da8        0x4 common/libcommon.o
 .bss.initted.7012
                0x80870dac        0x4 common/libcommon.o
 .bss.hist_add_idx
                0x80870db0        0x4 common/libcommon.o
 .bss.hist_num  0x80870db4        0x4 common/libcommon.o
 .bss.console_buffer
                0x80870db8      0x201 common/libcommon.o
                0x80870db8                console_buffer
 *fill*         0x80870fb9        0x3 
 .bss.current_mii
                0x80870fbc        0x4 common/libcommon.o
 .bss.mii_devs  0x80870fc0        0x8 common/libcommon.o
 .bss.devs      0x80870fc8       0x3c common/libcommon.o
 .bss.stdio_devices
                0x80871004        0xc common/libcommon.o
                0x80871004                stdio_devices
 .bss.dev_index
                0x80871010        0x4 common/libcommon.o
 *fill*         0x80871014       0x2c 
 .bss.usb_dev   0x80871040    0x13000 common/libcommon.o
 .bss.asynch_allowed
                0x80884040        0x4 common/libcommon.o
 .bss.usb_started
                0x80884044        0x1 common/libcommon.o
                0x80884044                usb_started
 *fill*         0x80884045        0x3 
 .bss.usb_hub_index
                0x80884048        0x4 common/libcommon.o
 .bss.hub_dev   0x8088404c      0x100 common/libcommon.o
 .bss.usb_stor  0x8088414c      0x104 common/libcommon.o
 .bss.usb_dev_desc
                0x80884250      0x244 common/libcommon.o
 .bss.usb_max_devs
                0x80884494        0x4 common/libcommon.o
 .bss.CBWTag    0x80884498        0x4 common/libcommon.o
 *fill*         0x8088449c       0x24 
 .bss.usb_ccb   0x808844c0       0xc0 common/libcommon.o
 .bss.xyz       0x80884580      0x434 common/libcommon.o
 .bss.name.6227
                0x808849b4       0x25 disk/libdisk.o
 .bss.dfu_reset_request
                0x808849d9        0x1 drivers/dfu/libdfu.o
 *fill*         0x808849da        0x2 
 .bss.dfu_buf   0x808849dc        0x4 drivers/dfu/libdfu.o
 .bss.dfu_alt_num
                0x808849e0        0x4 drivers/dfu/libdfu.o
 .bss.dfu_file_buf_len
                0x808849e4        0x4 drivers/dfu/libdfu.o
 *fill*         0x808849e8       0x18 
 .bss.dfu_file_buf
                0x80884a00   0x800000 drivers/dfu/libdfu.o
 .bss.mmc_devices
                0x81084a00        0x8 drivers/mmc/libmmc.o
 .bss.hsmmc_dev_data
                0x81084a08       0x24 drivers/mmc/libmmc.o
 *fill*         0x81084a2c        0x4 
 .bss.hsmmc_dev
                0x81084a30      0x450 drivers/mmc/libmmc.o
 .bss.mtd_table
                0x81084e80       0x80 drivers/mtd/libmtd.o
                0x81084e80                mtd_table
 .bss.mtd_partitions
                0x81084f00        0x8 drivers/mtd/libmtd.o
                0x81084f00                mtd_partitions
 .bss.nand_info
                0x81084f08       0xb0 drivers/mtd/nand/libnand.o
                0x81084f08                nand_info
 .bss.nand_chip
                0x81084fb8      0x228 drivers/mtd/nand/libnand.o
 .bss.total_nand_size
                0x810851e0        0x4 drivers/mtd/nand/libnand.o
 .bss.dev_name  0x810851e4        0x8 drivers/mtd/nand/libnand.o
 .bss.cs        0x810851ec        0x1 drivers/mtd/nand/libnand.o
 *fill*         0x810851ed        0x3 
 .bss.omap_ecclayout
                0x810851f0      0x448 drivers/mtd/nand/libnand.o
 .bss.elm_cfg   0x81085638        0x4 drivers/mtd/nand/libnand.o
                0x81085638                elm_cfg
 .bss.mtd_devs  0x8108563c        0x4 drivers/mtd/ubi/libubi.o
 .bss.ubi_class
                0x81085640        0x4 drivers/mtd/ubi/libubi.o
                0x81085640                ubi_class
 .bss.mtd_dev_param
                0x81085644      0x880 drivers/mtd/ubi/libubi.o
 .bss.ubi_devices
                0x81085ec4       0x80 drivers/mtd/ubi/libubi.o
                0x81085ec4                ubi_devices
 .bss.empty_vtbl_record
                0x81085f44       0xac drivers/mtd/ubi/libubi.o
 .bss.vid_hdr.7309
                0x81085ff0        0x4 drivers/mtd/ubi/libubi.o
 .bss.vidh      0x81085ff4        0x4 drivers/mtd/ubi/libubi.o
 .bss.ech       0x81085ff8        0x4 drivers/mtd/ubi/libubi.o
 .bss.serial_devices
                0x81085ffc        0x4 drivers/serial/libserial.o
 .bss.serial_current
                0x81086000        0x4 drivers/serial/libserial.o
 .bss.epnum     0x81086004        0x4 drivers/usb/gadget/libusb_gadget.o
 .bss.name.7601
                0x81086008        0xd drivers/usb/gadget/libusb_gadget.o
 *fill*         0x81086015        0x3 
 .bss.composite
                0x81086018        0x4 drivers/usb/gadget/libusb_gadget.o
 .bss.dev_addr  0x8108601c       0x12 drivers/usb/gadget/libusb_gadget.o
 .bss.ethaddr   0x8108602e        0xd drivers/usb/gadget/libusb_gadget.o
 .bss.serial_number
                0x8108603b       0x14 drivers/usb/gadget/libusb_gadget.o
 *fill*         0x8108604f        0x1 
 .bss.iSerialNumber
                0x81086050        0x4 drivers/usb/gadget/libusb_gadget.o
 .bss.host_addr
                0x81086054       0x12 drivers/usb/gadget/libusb_gadget.o
 *fill*         0x81086066       0x1a 
 .bss.__status_req
                0x81086080       0x40 drivers/usb/gadget/libusb_gadget.o
 .bss.l_netdev  0x810860c0       0x40 drivers/usb/gadget/libusb_gadget.o
 .bss.packet_received
                0x81086100        0x4 drivers/usb/gadget/libusb_gadget.o
                0x81086100                packet_received
 .bss.rndis_resp_buf
                0x81086104        0x8 drivers/usb/gadget/libusb_gadget.o
 .bss.packet_sent
                0x8108610c        0x4 drivers/usb/gadget/libusb_gadget.o
                0x8108610c                packet_sent
 *fill*         0x81086110       0x30 
 .bss.__control_req
                0x81086140      0x100 drivers/usb/gadget/libusb_gadget.o
 .bss.l_ethdev  0x81086240       0xac drivers/usb/gadget/libusb_gadget.o
 .bss.manufacturer
                0x810862ec       0x32 drivers/usb/gadget/libusb_gadget.o
 *fill*         0x8108631e        0x2 
 .bss.iProduct  0x81086320        0x4 drivers/usb/gadget/libusb_gadget.o
 .bss.rndis_per_dev_params
                0x81086324       0x3c drivers/usb/gadget/libusb_gadget.o
 .bss.host      0x81086360        0x4 drivers/usb/musb-new/libusb_musb-new.o
 .bss.hep       0x81086364       0x18 drivers/usb/musb-new/libusb_musb-new.o
 .bss.host_speed
                0x8108637c        0x4 drivers/usb/musb-new/libusb_musb-new.o
 .bss.urb       0x81086380       0x3c drivers/usb/musb-new/libusb_musb-new.o
 .bss.hcd       0x810863bc        0x4 drivers/usb/musb-new/libusb_musb-new.o
 .bss.gadget    0x810863c0        0x4 drivers/usb/musb-new/libusb_musb-new.o
 *fill*         0x810863c4        0x4 
 .bss.ext_fs    0x810863c8       0x48 fs/ext4/libext4fs.o
                0x810863c8                ext_fs
 .bss.ext4fs_indir3_block
                0x81086410        0x4 fs/ext4/libext4fs.o
                0x81086410                ext4fs_indir3_block
 .bss.ext4fs_root
                0x81086414        0x4 fs/ext4/libext4fs.o
                0x81086414                ext4fs_root
 .bss.ext4fs_indir3_size
                0x81086418        0x4 fs/ext4/libext4fs.o
                0x81086418                ext4fs_indir3_size
 .bss.ext4fs_indir1_block
                0x8108641c        0x4 fs/ext4/libext4fs.o
                0x8108641c                ext4fs_indir1_block
 .bss.ext4fs_indir2_size
                0x81086420        0x4 fs/ext4/libext4fs.o
                0x81086420                ext4fs_indir2_size
 .bss.ext4fs_indir2_block
                0x81086424        0x4 fs/ext4/libext4fs.o
                0x81086424                ext4fs_indir2_block
 .bss.ext4fs_indir1_size
                0x81086428        0x4 fs/ext4/libext4fs.o
                0x81086428                ext4fs_indir1_size
 .bss.symlinknest
                0x8108642c        0x4 fs/ext4/libext4fs.o
 .bss.ext4fs_file
                0x81086430        0x4 fs/ext4/libext4fs.o
                0x81086430                ext4fs_file
 .bss.part_info
                0x81086434        0x4 fs/ext4/libext4fs.o
 .bss.ext4fs_block_dev_desc
                0x81086438        0x4 fs/ext4/libext4fs.o
 .bss.part_offset
                0x8108643c        0x4 fs/ext4/libext4fs.o
                0x8108643c                part_offset
 .bss.get_contents_vfatname_block
                0x81086440    0x10000 fs/fat/libfat.o
                0x81086440                get_contents_vfatname_block
 .bss.do_fat_read_at_block
                0x81096440    0x10000 fs/fat/libfat.o
                0x81096440                do_fat_read_at_block
 .bss.get_dentfromdir_block
                0x810a6440    0x10000 fs/fat/libfat.o
                0x810a6440                get_dentfromdir_block
 .bss.empty_dentptr
                0x810b6440        0x4 fs/fat/libfat.o
 .bss.cur_part_info
                0x810b6444       0x78 fs/fat/libfat.o
 .bss.total_sector
                0x810b64bc        0x4 fs/fat/libfat.o
 .bss.dir_curclust
                0x810b64c0        0x4 fs/fat/libfat.o
 .bss.num_of_fats
                0x810b64c4        0x1 fs/fat/libfat.o
 *fill*         0x810b64c5        0x3 
 .bss.cur_dev   0x810b64c8        0x4 fs/fat/libfat.o
 .bss.fs_partition
                0x810b64cc       0x78 fs/libfs.o
 .bss.fs_type   0x810b6544        0x4 fs/libfs.o
 .bss.fs_dev_desc
                0x810b6548        0x4 fs/libfs.o
 .bss.ubifs_compressors
                0x810b654c        0xc fs/ubifs/libubifs.o
                0x810b654c                ubifs_compressors
 .bss.ubifs_sb  0x810b6558        0x4 fs/ubifs/libubifs.o
                0x810b6558                ubifs_sb
 .bss.inodes_locked_down
                0x810b655c      0x100 fs/ubifs/libubifs.o
 .bss.ubifs_infos
                0x810b665c        0x8 fs/ubifs/libubifs.o
                0x810b665c                ubifs_infos
 .bss.errno     0x810b6664        0x4 lib/libgeneric.o
                0x810b6664                errno
 .bss.local.6352
                0x810b6668       0x16 lib/libgeneric.o
 *fill*         0x810b667e        0x2 
 .bss.NetArpWaitPacketIP
                0x810b6680        0x4 net/libnet.o
                0x810b6680                NetArpWaitPacketIP
 .bss.NetArpWaitTimerStart
                0x810b6684        0x4 net/libnet.o
                0x810b6684                NetArpWaitTimerStart
 .bss.NetArpWaitReplyIP
                0x810b6688        0x4 net/libnet.o
 .bss.NetArpWaitTxPacketSize
                0x810b668c        0x4 net/libnet.o
                0x810b668c                NetArpWaitTxPacketSize
 .bss.NetArpWaitTry
                0x810b6690        0x4 net/libnet.o
                0x810b6690                NetArpWaitTry
 .bss.NetArpTxPacket
                0x810b6694        0x4 net/libnet.o
 .bss.NetArpPacketBuf
                0x810b6698      0x640 net/libnet.o
 .bss.NetArpWaitPacketMAC
                0x810b6cd8        0x4 net/libnet.o
                0x810b6cd8                NetArpWaitPacketMAC
 .bss.dhcp_state
                0x810b6cdc        0x4 net/libnet.o
 .bss.BootpTry  0x810b6ce0        0x4 net/libnet.o
                0x810b6ce0                BootpTry
 .bss.NetDHCPServerIP
                0x810b6ce4        0x4 net/libnet.o
 .bss.BootpID   0x810b6ce8        0x4 net/libnet.o
                0x810b6ce8                BootpID
 .bss.dhcp_leasetime
                0x810b6cec        0x4 net/libnet.o
 .bss.first_failed.6741
                0x810b6cf0        0x4 net/libnet.o
 .bss.env_changed_id.6747
                0x810b6cf4        0x4 net/libnet.o
 .bss.eth_current
                0x810b6cf8        0x4 net/libnet.o
                0x810b6cf8                eth_current
 .bss.eth_devices
                0x810b6cfc        0x4 net/libnet.o
 .bss.index.6694
                0x810b6d00        0x4 net/libnet.o
 .bss.act.6746  0x810b6d04        0x4 net/libnet.o
 .bss.NetOurEther
                0x810b6d08        0x6 net/libnet.o
                0x810b6d08                NetOurEther
 *fill*         0x810b6d0e        0x2 
 .bss.NetServerIP
                0x810b6d10        0x4 net/libnet.o
                0x810b6d10                NetServerIP
 .bss.NetRestarted
                0x810b6d14        0x4 net/libnet.o
 .bss.net_state
                0x810b6d18        0x4 net/libnet.o
                0x810b6d18                net_state
 .bss.NetRxPackets
                0x810b6d1c       0x10 net/libnet.o
                0x810b6d1c                NetRxPackets
 .bss.NetBootFileSize
                0x810b6d2c        0x2 net/libnet.o
                0x810b6d2c                NetBootFileSize
 .bss.NetEtherNullAddr
                0x810b6d2e        0x6 net/libnet.o
                0x810b6d2e                NetEtherNullAddr
 .bss.NetRxPacket
                0x810b6d34        0x4 net/libnet.o
                0x810b6d34                NetRxPacket
 .bss.udp_packet_handler
                0x810b6d38        0x4 net/libnet.o
 .bss.NetDevExists
                0x810b6d3c        0x4 net/libnet.o
 .bss.timeStart
                0x810b6d40        0x4 net/libnet.o
 .bss.timeHandler
                0x810b6d44        0x4 net/libnet.o
 .bss.NetTryCount
                0x810b6d48        0x4 net/libnet.o
 .bss.NetOurDNSIP
                0x810b6d4c        0x4 net/libnet.o
                0x810b6d4c                NetOurDNSIP
 .bss.NetOurSubnetMask
                0x810b6d50        0x4 net/libnet.o
                0x810b6d50                NetOurSubnetMask
 .bss.NetOurDNS2IP
                0x810b6d54        0x4 net/libnet.o
                0x810b6d54                NetOurDNS2IP
 .bss.NetTxPacket
                0x810b6d58        0x4 net/libnet.o
                0x810b6d58                NetTxPacket
 .bss.NetBootFileXferSize
                0x810b6d5c        0x4 net/libnet.o
                0x810b6d5c                NetBootFileXferSize
 .bss.env_changed_id.6343
                0x810b6d60        0x4 net/libnet.o
 .bss.NetOurIP  0x810b6d64        0x4 net/libnet.o
                0x810b6d64                NetOurIP
 .bss.NetOurNISDomain
                0x810b6d68       0x20 net/libnet.o
                0x810b6d68                NetOurNISDomain
 .bss.NetIPID   0x810b6d88        0x4 net/libnet.o
                0x810b6d88                NetIPID
 .bss.NetOurGatewayIP
                0x810b6d8c        0x4 net/libnet.o
                0x810b6d8c                NetOurGatewayIP
 .bss.arp_packet_handler
                0x810b6d90        0x4 net/libnet.o
 .bss.NetOurHostName
                0x810b6d94       0x20 net/libnet.o
                0x810b6d94                NetOurHostName
 .bss.NetRestartWrap
                0x810b6db4        0x4 net/libnet.o
                0x810b6db4                NetRestartWrap
 .bss.NetRxPacketLen
                0x810b6db8        0x4 net/libnet.o
                0x810b6db8                NetRxPacketLen
 .bss.BootFile  0x810b6dbc       0x80 net/libnet.o
                0x810b6dbc                BootFile
 .bss.timeDelta
                0x810b6e3c        0x4 net/libnet.o
 .bss.NetServerEther
                0x810b6e40        0x6 net/libnet.o
                0x810b6e40                NetServerEther
 .bss.PktBuf    0x810b6e46     0x1e40 net/libnet.o
 .bss.NetOurRootPath
                0x810b8c86       0x40 net/libnet.o
                0x810b8c86                NetOurRootPath
 *fill*         0x810b8cc6        0x2 
 .bss.NfsOurPort
                0x810b8cc8        0x4 net/libnet.o
 .bss.NfsServerIP
                0x810b8ccc        0x4 net/libnet.o
 .bss.nfs_filename
                0x810b8cd0        0x4 net/libnet.o
 .bss.nfs_len   0x810b8cd4        0x4 net/libnet.o
 .bss.NfsSrvMountPort
                0x810b8cd8        0x4 net/libnet.o
 .bss.dirfh     0x810b8cdc       0x20 net/libnet.o
 .bss.NfsSrvNfsPort
                0x810b8cfc        0x4 net/libnet.o
 .bss.rpc_id    0x810b8d00        0x4 net/libnet.o
 .bss.fs_mounted
                0x810b8d04        0x4 net/libnet.o
 .bss.nfs_path_buff
                0x810b8d08      0x800 net/libnet.o
 .bss.nfs_download_state
                0x810b9508        0x4 net/libnet.o
 .bss.nfs_path  0x810b950c        0x4 net/libnet.o
 .bss.filefh    0x810b9510       0x20 net/libnet.o
 .bss.NfsState  0x810b9530        0x4 net/libnet.o
 .bss.default_filename
                0x810b9534       0x4d net/libnet.o
 *fill*         0x810b9581        0x3 
 .bss.NfsTimeoutCount
                0x810b9584        0x4 net/libnet.o
 .bss.NetPingIP
                0x810b9588        0x4 net/libnet.o
                0x810b9588                NetPingIP
 .bss.PingSeqNo
                0x810b958c        0x2 net/libnet.o
 *fill*         0x810b958e        0x2 
 .bss.time_start
                0x810b9590        0x4 net/libnet.o
 .bss.TftpTimeoutCount
                0x810b9594        0x4 net/libnet.o
 .bss.TftpBlockWrap
                0x810b9598        0x4 net/libnet.o
 .bss.TftpBlock
                0x810b959c        0x4 net/libnet.o
 .bss.TftpOurPort
                0x810b95a0        0x4 net/libnet.o
 .bss.TftpRemoteIP
                0x810b95a4        0x4 net/libnet.o
 .bss.TftpState
                0x810b95a8        0x4 net/libnet.o
 .bss.TftpRemotePort
                0x810b95ac        0x4 net/libnet.o
 .bss.tftp_filename
                0x810b95b0       0x80 net/libnet.o
 .bss.TftpBlockWrapOffset
                0x810b9630        0x4 net/libnet.o
 .bss.TftpLastBlock
                0x810b9634        0x4 net/libnet.o
                0x810b9638                . = ALIGN (0x4)
                0x810b9638                __bss_limit = .

.dynbss         0x8086d1f0        0x0 load address 0x810b9638
 .dynbss        0x00000000        0x0 arch/arm/cpu/armv7/start.o

.bss_end        0x810b9638        0x0
 *(.__bss_end)
 .__bss_end     0x810b9638        0x0 arch/arm/lib/libarm.o
                0x810b9638                __bss_end

/DISCARD/
 *(.dynsym)
 *(.dynstr*)
 *(.dynamic*)
 *(.plt*)
 *(.interp*)
 *(.gnu*)
Address of section .text set to 0x80800000
LOAD arch/arm/cpu/armv7/start.o
START GROUP
LOAD api/libapi.o
LOAD arch/arm/cpu/armv7/am33xx/libam33xx.o
LOAD arch/arm/cpu/armv7/libarmv7.o
LOAD arch/arm/cpu/armv7/omap-common/libomap-common.o
LOAD arch/arm/lib/libarm.o
LOAD common/libcommon.o
LOAD disk/libdisk.o
LOAD drivers/bios_emulator/libatibiosemu.o
LOAD drivers/block/libblock.o
LOAD drivers/crypto/libcrypto.o
LOAD drivers/dfu/libdfu.o
LOAD drivers/dma/libdma.o
LOAD drivers/fpga/libfpga.o
LOAD drivers/gpio/libgpio.o
LOAD drivers/hwmon/libhwmon.o
LOAD drivers/i2c/libi2c.o
LOAD drivers/input/libinput.o
LOAD drivers/misc/libmisc.o
LOAD drivers/mmc/libmmc.o
LOAD drivers/mtd/libmtd.o
LOAD drivers/mtd/nand/libnand.o
LOAD drivers/mtd/onenand/libonenand.o
LOAD drivers/mtd/spi/libspi_flash.o
LOAD drivers/mtd/ubi/libubi.o
LOAD drivers/net/libnet.o
LOAD drivers/net/phy/libphy.o
LOAD drivers/pci/libpci.o
LOAD drivers/pcmcia/libpcmcia.o
LOAD drivers/power/battery/libbattery.o
LOAD drivers/power/fuel_gauge/libfuel_gauge.o
LOAD drivers/power/libpower.o
LOAD drivers/power/mfd/libmfd.o
LOAD drivers/power/pmic/libpmic.o
LOAD drivers/rtc/librtc.o
LOAD drivers/serial/libserial.o
LOAD drivers/sound/libsound.o
LOAD drivers/spi/libspi.o
LOAD drivers/tpm/libtpm.o
LOAD drivers/twserial/libtws.o
LOAD drivers/usb/eth/libusb_eth.o
LOAD drivers/usb/gadget/libusb_gadget.o
LOAD drivers/usb/host/libusb_host.o
LOAD drivers/usb/musb-new/libusb_musb-new.o
LOAD drivers/usb/musb/libusb_musb.o
LOAD drivers/usb/phy/libusb_phy.o
LOAD drivers/usb/ulpi/libusb_ulpi.o
LOAD drivers/video/libvideo.o
LOAD drivers/watchdog/libwatchdog.o
LOAD fs/cbfs/libcbfs.o
LOAD fs/cramfs/libcramfs.o
LOAD fs/ext4/libext4fs.o
LOAD fs/fat/libfat.o
LOAD fs/fdos/libfdos.o
LOAD fs/jffs2/libjffs2.o
LOAD fs/libfs.o
LOAD fs/reiserfs/libreiserfs.o
LOAD fs/sandbox/libsandboxfs.o
LOAD fs/ubifs/libubifs.o
LOAD fs/yaffs2/libyaffs2.o
LOAD fs/zfs/libzfs.o
LOAD lib/libfdt/libfdt.o
LOAD lib/libgeneric.o
LOAD lib/lzma/liblzma.o
LOAD lib/lzo/liblzo.o
LOAD lib/rsa/librsa.o
LOAD lib/zlib/libz.o
LOAD net/libnet.o
LOAD post/libpost.o
LOAD test/libtest.o
LOAD board/knobloch/TXT/libTXT.o
END GROUP
LOAD /home/ru/Knobloch/wrk/BuildRoot/ft-TXT/board/knobloch/TXT/board-support/u-boot-2013.10-ti2013.12.01/arch/arm/lib/eabi_compat.o
LOAD /home/ru/Knobloch/wrk/BuildRoot/ft-TXT/output/host/opt/ext-toolchain/bin/../lib/gcc/arm-linux-gnueabihf/4.9.1/libgcc.a
OUTPUT(u-boot elf32-littlearm)

.ARM.attributes
                0x00000000       0x2d
 .ARM.attributes
                0x00000000       0x1f arch/arm/cpu/armv7/start.o
 .ARM.attributes
                0x0000001f       0x2f board/knobloch/TXT/libTXT.o
 .ARM.attributes
                0x0000004e       0x2f arch/arm/cpu/armv7/am33xx/libam33xx.o
 .ARM.attributes
                0x0000007d       0x2f arch/arm/cpu/armv7/libarmv7.o
 .ARM.attributes
                0x000000ac       0x2d arch/arm/cpu/armv7/omap-common/libomap-common.o
 .ARM.attributes
                0x000000d9       0x2d arch/arm/lib/libarm.o
 .ARM.attributes
                0x00000106       0x2f common/libcommon.o
 .ARM.attributes
                0x00000135       0x2f disk/libdisk.o
 .ARM.attributes
                0x00000164       0x2f drivers/dfu/libdfu.o
 .ARM.attributes
                0x00000193       0x2f drivers/gpio/libgpio.o
 .ARM.attributes
                0x000001c2       0x2f drivers/i2c/libi2c.o
 .ARM.attributes
                0x000001f1       0x2f drivers/mmc/libmmc.o
 .ARM.attributes
                0x00000220       0x2f drivers/mtd/libmtd.o
 .ARM.attributes
                0x0000024f       0x2f drivers/mtd/nand/libnand.o
 .ARM.attributes
                0x0000027e       0x2f drivers/mtd/spi/libspi_flash.o
 .ARM.attributes
                0x000002ad       0x2f drivers/mtd/ubi/libubi.o
 .ARM.attributes
                0x000002dc       0x2f drivers/net/phy/libphy.o
 .ARM.attributes
                0x0000030b       0x2f drivers/serial/libserial.o
 .ARM.attributes
                0x0000033a       0x2f drivers/spi/libspi.o
 .ARM.attributes
                0x00000369       0x2f drivers/usb/gadget/libusb_gadget.o
 .ARM.attributes
                0x00000398       0x2f drivers/usb/musb-new/libusb_musb-new.o
 .ARM.attributes
                0x000003c7       0x2f fs/ext4/libext4fs.o
 .ARM.attributes
                0x000003f6       0x2f fs/fat/libfat.o
 .ARM.attributes
                0x00000425       0x2f fs/libfs.o
 .ARM.attributes
                0x00000454       0x2f fs/ubifs/libubifs.o
 .ARM.attributes
                0x00000483       0x2f lib/libfdt/libfdt.o
 .ARM.attributes
                0x000004b2       0x2f lib/libgeneric.o
 .ARM.attributes
                0x000004e1       0x2f lib/lzo/liblzo.o
 .ARM.attributes
                0x00000510       0x2f lib/zlib/libz.o
 .ARM.attributes
                0x0000053f       0x2f net/libnet.o
 .ARM.attributes
                0x0000056e       0x2f /home/ru/Knobloch/wrk/BuildRoot/ft-TXT/board/knobloch/TXT/board-support/u-boot-2013.10-ti2013.12.01/arch/arm/lib/eabi_compat.o
 .ARM.attributes
                0x0000059d       0x21 /home/ru/Knobloch/wrk/BuildRoot/ft-TXT/output/host/opt/ext-toolchain/bin/../lib/gcc/arm-linux-gnueabihf/4.9.1/libgcc.a(_udivsi3.o)
 .ARM.attributes
                0x000005be       0x21 /home/ru/Knobloch/wrk/BuildRoot/ft-TXT/output/host/opt/ext-toolchain/bin/../lib/gcc/arm-linux-gnueabihf/4.9.1/libgcc.a(_divsi3.o)
 .ARM.attributes
                0x000005df       0x21 /home/ru/Knobloch/wrk/BuildRoot/ft-TXT/output/host/opt/ext-toolchain/bin/../lib/gcc/arm-linux-gnueabihf/4.9.1/libgcc.a(_lshrdi3.o)
 .ARM.attributes
                0x00000600       0x21 /home/ru/Knobloch/wrk/BuildRoot/ft-TXT/output/host/opt/ext-toolchain/bin/../lib/gcc/arm-linux-gnueabihf/4.9.1/libgcc.a(_ashrdi3.o)
 .ARM.attributes
                0x00000621       0x21 /home/ru/Knobloch/wrk/BuildRoot/ft-TXT/output/host/opt/ext-toolchain/bin/../lib/gcc/arm-linux-gnueabihf/4.9.1/libgcc.a(_ashldi3.o)
 .ARM.attributes
                0x00000642       0x21 /home/ru/Knobloch/wrk/BuildRoot/ft-TXT/output/host/opt/ext-toolchain/bin/../lib/gcc/arm-linux-gnueabihf/4.9.1/libgcc.a(_dvmd_lnx.o)

.comment        0x00000000       0x5f
 .comment       0x00000000       0x5f board/knobloch/TXT/libTXT.o
                                 0x60 (size before relaxing)
 .comment       0x00000000      0x2a0 arch/arm/cpu/armv7/am33xx/libam33xx.o
 .comment       0x00000000      0x120 arch/arm/cpu/armv7/libarmv7.o
 .comment       0x00000000      0x1e0 arch/arm/cpu/armv7/omap-common/libomap-common.o
 .comment       0x00000000      0x300 arch/arm/lib/libarm.o
 .comment       0x00000000     0x1920 common/libcommon.o
 .comment       0x00000000      0x120 disk/libdisk.o
 .comment       0x00000000      0x180 drivers/dfu/libdfu.o
 .comment       0x00000000       0x60 drivers/gpio/libgpio.o
 .comment       0x00000000       0x60 drivers/i2c/libi2c.o
 .comment       0x00000000      0x120 drivers/mmc/libmmc.o
 .comment       0x00000000       0xc0 drivers/mtd/libmtd.o
 .comment       0x00000000      0x300 drivers/mtd/nand/libnand.o
 .comment       0x00000000      0x120 drivers/mtd/spi/libspi_flash.o
 .comment       0x00000000      0x480 drivers/mtd/ubi/libubi.o
 .comment       0x00000000       0xc0 drivers/net/phy/libphy.o
 .comment       0x00000000      0x120 drivers/serial/libserial.o
 .comment       0x00000000       0xc0 drivers/spi/libspi.o
 .comment       0x00000000      0x2a0 drivers/usb/gadget/libusb_gadget.o
 .comment       0x00000000      0x240 drivers/usb/musb-new/libusb_musb-new.o
 .comment       0x00000000      0x120 fs/ext4/libext4fs.o
 .comment       0x00000000       0xc0 fs/fat/libfat.o
 .comment       0x00000000       0x60 fs/libfs.o
 .comment       0x00000000      0x6c0 fs/ubifs/libubifs.o
 .comment       0x00000000      0x2a0 lib/libfdt/libfdt.o
 .comment       0x00000000      0x7e0 lib/libgeneric.o
 .comment       0x00000000       0x60 lib/lzo/liblzo.o
 .comment       0x00000000       0x60 lib/zlib/libz.o
 .comment       0x00000000      0x2a0 net/libnet.o
 .comment       0x00000000       0x60 /home/ru/Knobloch/wrk/BuildRoot/ft-TXT/board/knobloch/TXT/board-support/u-boot-2013.10-ti2013.12.01/arch/arm/lib/eabi_compat.o

.note.GNU-stack
                0x00000000        0x0
 .note.GNU-stack
                0x00000000        0x0 board/knobloch/TXT/libTXT.o
 .note.GNU-stack
                0x00000000        0x0 arch/arm/cpu/armv7/am33xx/libam33xx.o
 .note.GNU-stack
                0x00000000        0x0 arch/arm/cpu/armv7/libarmv7.o
 .note.GNU-stack
                0x00000000        0x0 arch/arm/cpu/armv7/omap-common/libomap-common.o
 .note.GNU-stack
                0x00000000        0x0 arch/arm/lib/libarm.o
 .note.GNU-stack
                0x00000000        0x0 common/libcommon.o
 .note.GNU-stack
                0x00000000        0x0 disk/libdisk.o
 .note.GNU-stack
                0x00000000        0x0 drivers/dfu/libdfu.o
 .note.GNU-stack
                0x00000000        0x0 drivers/gpio/libgpio.o
 .note.GNU-stack
                0x00000000        0x0 drivers/i2c/libi2c.o
 .note.GNU-stack
                0x00000000        0x0 drivers/mmc/libmmc.o
 .note.GNU-stack
                0x00000000        0x0 drivers/mtd/libmtd.o
 .note.GNU-stack
                0x00000000        0x0 drivers/mtd/nand/libnand.o
 .note.GNU-stack
                0x00000000        0x0 drivers/mtd/spi/libspi_flash.o
 .note.GNU-stack
                0x00000000        0x0 drivers/mtd/ubi/libubi.o
 .note.GNU-stack
                0x00000000        0x0 drivers/net/phy/libphy.o
 .note.GNU-stack
                0x00000000        0x0 drivers/serial/libserial.o
 .note.GNU-stack
                0x00000000        0x0 drivers/spi/libspi.o
 .note.GNU-stack
                0x00000000        0x0 drivers/usb/gadget/libusb_gadget.o
 .note.GNU-stack
                0x00000000        0x0 drivers/usb/musb-new/libusb_musb-new.o
 .note.GNU-stack
                0x00000000        0x0 fs/ext4/libext4fs.o
 .note.GNU-stack
                0x00000000        0x0 fs/fat/libfat.o
 .note.GNU-stack
                0x00000000        0x0 fs/libfs.o
 .note.GNU-stack
                0x00000000        0x0 fs/ubifs/libubifs.o
 .note.GNU-stack
                0x00000000        0x0 lib/libfdt/libfdt.o
 .note.GNU-stack
                0x00000000        0x0 lib/libgeneric.o
 .note.GNU-stack
                0x00000000        0x0 lib/lzo/liblzo.o
 .note.GNU-stack
                0x00000000        0x0 lib/zlib/libz.o
 .note.GNU-stack
                0x00000000        0x0 net/libnet.o
 .note.GNU-stack
                0x00000000        0x0 /home/ru/Knobloch/wrk/BuildRoot/ft-TXT/board/knobloch/TXT/board-support/u-boot-2013.10-ti2013.12.01/arch/arm/lib/eabi_compat.o
 .note.GNU-stack
                0x00000000        0x0 /home/ru/Knobloch/wrk/BuildRoot/ft-TXT/output/host/opt/ext-toolchain/bin/../lib/gcc/arm-linux-gnueabihf/4.9.1/libgcc.a(_udivsi3.o)
 .note.GNU-stack
                0x00000000        0x0 /home/ru/Knobloch/wrk/BuildRoot/ft-TXT/output/host/opt/ext-toolchain/bin/../lib/gcc/arm-linux-gnueabihf/4.9.1/libgcc.a(_divsi3.o)
 .note.GNU-stack
                0x00000000        0x0 /home/ru/Knobloch/wrk/BuildRoot/ft-TXT/output/host/opt/ext-toolchain/bin/../lib/gcc/arm-linux-gnueabihf/4.9.1/libgcc.a(_lshrdi3.o)
 .note.GNU-stack
                0x00000000        0x0 /home/ru/Knobloch/wrk/BuildRoot/ft-TXT/output/host/opt/ext-toolchain/bin/../lib/gcc/arm-linux-gnueabihf/4.9.1/libgcc.a(_ashrdi3.o)
 .note.GNU-stack
                0x00000000        0x0 /home/ru/Knobloch/wrk/BuildRoot/ft-TXT/output/host/opt/ext-toolchain/bin/../lib/gcc/arm-linux-gnueabihf/4.9.1/libgcc.a(_ashldi3.o)
 .note.GNU-stack
                0x00000000        0x0 /home/ru/Knobloch/wrk/BuildRoot/ft-TXT/output/host/opt/ext-toolchain/bin/../lib/gcc/arm-linux-gnueabihf/4.9.1/libgcc.a(_dvmd_lnx.o)

.debug_line     0x00000000    0x39cd4
 .debug_line    0x00000000       0x97 arch/arm/cpu/armv7/start.o
 .debug_line    0x00000097      0x3be board/knobloch/TXT/libTXT.o
 .debug_line    0x00000455     0x1401 arch/arm/cpu/armv7/am33xx/libam33xx.o
 .debug_line    0x00001856      0x74c arch/arm/cpu/armv7/libarmv7.o
 .debug_line    0x00001fa2      0xbba arch/arm/cpu/armv7/omap-common/libomap-common.o
 .debug_line    0x00002b5c     0x17c1 arch/arm/lib/libarm.o
 .debug_line    0x0000431d    0x10e0d common/libcommon.o
 .debug_line    0x0001512a      0xf97 disk/libdisk.o
 .debug_line    0x000160c1      0xf9d drivers/dfu/libdfu.o
 .debug_line    0x0001705e      0x2cb drivers/gpio/libgpio.o
 .debug_line    0x00017329      0x501 drivers/i2c/libi2c.o
 .debug_line    0x0001782a     0x1042 drivers/mmc/libmmc.o
 .debug_line    0x0001886c      0xba2 drivers/mtd/libmtd.o
 .debug_line    0x0001940e     0x340e drivers/mtd/nand/libnand.o
 .debug_line    0x0001c81c      0x8a9 drivers/mtd/spi/libspi_flash.o
 .debug_line    0x0001d0c5     0x4cd4 drivers/mtd/ubi/libubi.o
 .debug_line    0x00021d99      0x82f drivers/net/phy/libphy.o
 .debug_line    0x000225c8      0xbca drivers/serial/libserial.o
 .debug_line    0x00023192      0x5df drivers/spi/libspi.o
 .debug_line    0x00023771     0x2ac4 drivers/usb/gadget/libusb_gadget.o
 .debug_line    0x00026235     0x310a drivers/usb/musb-new/libusb_musb-new.o
 .debug_line    0x0002933f      0xc3a fs/ext4/libext4fs.o
 .debug_line    0x00029f79      0xdf9 fs/fat/libfat.o
 .debug_line    0x0002ad72      0x42c fs/libfs.o
 .debug_line    0x0002b19e     0x6922 fs/ubifs/libubifs.o
 .debug_line    0x00031ac0     0x186a lib/libfdt/libfdt.o
 .debug_line    0x0003332a     0x345b lib/libgeneric.o
 .debug_line    0x00036785      0x49a lib/lzo/liblzo.o
 .debug_line    0x00036c1f      0xba5 lib/zlib/libz.o
 .debug_line    0x000377c4     0x2339 net/libnet.o
 .debug_line    0x00039afd      0x1d7 /home/ru/Knobloch/wrk/BuildRoot/ft-TXT/board/knobloch/TXT/board-support/u-boot-2013.10-ti2013.12.01/arch/arm/lib/eabi_compat.o

.debug_info     0x00000000   0x11e300
 .debug_info    0x00000000       0xa7 arch/arm/cpu/armv7/start.o
 .debug_info    0x000000a7      0xb9c board/knobloch/TXT/libTXT.o
 .debug_info    0x00000c43     0x47fb arch/arm/cpu/armv7/am33xx/libam33xx.o
 .debug_info    0x0000543e     0x134d arch/arm/cpu/armv7/libarmv7.o
 .debug_info    0x0000678b     0x1b15 arch/arm/cpu/armv7/omap-common/libomap-common.o
 .debug_info    0x000082a0     0x4857 arch/arm/lib/libarm.o
 .debug_info    0x0000caf7    0x4be2f common/libcommon.o
 .debug_info    0x00058926     0x3fcd disk/libdisk.o
 .debug_info    0x0005c8f3     0x4f0a drivers/dfu/libdfu.o
 .debug_info    0x000617fd      0x899 drivers/gpio/libgpio.o
 .debug_info    0x00062096     0x12c9 drivers/i2c/libi2c.o
 .debug_info    0x0006335f     0x4f3e drivers/mmc/libmmc.o
 .debug_info    0x0006829d     0x2e5e drivers/mtd/libmtd.o
 .debug_info    0x0006b0fb    0x10aee drivers/mtd/nand/libnand.o
 .debug_info    0x0007bbe9     0x1f60 drivers/mtd/spi/libspi_flash.o
 .debug_info    0x0007db49    0x18d9c drivers/mtd/ubi/libubi.o
 .debug_info    0x000968e5     0x2576 drivers/net/phy/libphy.o
 .debug_info    0x00098e5b     0x2a21 drivers/serial/libserial.o
 .debug_info    0x0009b87c     0x155e drivers/spi/libspi.o
 .debug_info    0x0009cdda     0xc424 drivers/usb/gadget/libusb_gadget.o
 .debug_info    0x000a91fe    0x14358 drivers/usb/musb-new/libusb_musb-new.o
 .debug_info    0x000bd556     0x3d48 fs/ext4/libext4fs.o
 .debug_info    0x000c129e     0x4138 fs/fat/libfat.o
 .debug_info    0x000c53d6     0x1364 fs/libfs.o
 .debug_info    0x000c673a    0x3e36b fs/ubifs/libubifs.o
 .debug_info    0x00104aa5     0x5adf lib/libfdt/libfdt.o
 .debug_info    0x0010a584     0x7ef2 lib/libgeneric.o
 .debug_info    0x00112476      0xaf7 lib/lzo/liblzo.o
 .debug_info    0x00112f6d     0x1563 lib/zlib/libz.o
 .debug_info    0x001144d0     0x9b24 net/libnet.o
 .debug_info    0x0011dff4      0x30c /home/ru/Knobloch/wrk/BuildRoot/ft-TXT/board/knobloch/TXT/board-support/u-boot-2013.10-ti2013.12.01/arch/arm/lib/eabi_compat.o

.debug_abbrev   0x00000000    0x28f37
 .debug_abbrev  0x00000000       0x14 arch/arm/cpu/armv7/start.o
 .debug_abbrev  0x00000014      0x2d7 board/knobloch/TXT/libTXT.o
 .debug_abbrev  0x000002eb      0xe48 arch/arm/cpu/armv7/am33xx/libam33xx.o
 .debug_abbrev  0x00001133      0x604 arch/arm/cpu/armv7/libarmv7.o
 .debug_abbrev  0x00001737      0x7ce arch/arm/cpu/armv7/omap-common/libomap-common.o
 .debug_abbrev  0x00001f05     0x11c3 arch/arm/lib/libarm.o
 .debug_abbrev  0x000030c8     0xc788 common/libcommon.o
 .debug_abbrev  0x0000f850      0xbff disk/libdisk.o
 .debug_abbrev  0x0001044f      0xe97 drivers/dfu/libdfu.o
 .debug_abbrev  0x000112e6      0x258 drivers/gpio/libgpio.o
 .debug_abbrev  0x0001153e      0x36d drivers/i2c/libi2c.o
 .debug_abbrev  0x000118ab      0xd70 drivers/mmc/libmmc.o
 .debug_abbrev  0x0001261b      0x7a3 drivers/mtd/libmtd.o
 .debug_abbrev  0x00012dbe     0x1cdb drivers/mtd/nand/libnand.o
 .debug_abbrev  0x00014a99      0x817 drivers/mtd/spi/libspi_flash.o
 .debug_abbrev  0x000152b0     0x2e85 drivers/mtd/ubi/libubi.o
 .debug_abbrev  0x00018135      0x6e1 drivers/net/phy/libphy.o
 .debug_abbrev  0x00018816      0x81e drivers/serial/libserial.o
 .debug_abbrev  0x00019034      0x5b3 drivers/spi/libspi.o
 .debug_abbrev  0x000195e7     0x1c32 drivers/usb/gadget/libusb_gadget.o
 .debug_abbrev  0x0001b219     0x1e70 drivers/usb/musb-new/libusb_musb-new.o
 .debug_abbrev  0x0001d089      0x8da fs/ext4/libext4fs.o
 .debug_abbrev  0x0001d963      0x7b3 fs/fat/libfat.o
 .debug_abbrev  0x0001e116      0x362 fs/libfs.o
 .debug_abbrev  0x0001e478     0x4ff4 fs/ubifs/libubifs.o
 .debug_abbrev  0x0002346c      0xf76 lib/libfdt/libfdt.o
 .debug_abbrev  0x000243e2     0x25d8 lib/libgeneric.o
 .debug_abbrev  0x000269ba      0x2ae lib/lzo/liblzo.o
 .debug_abbrev  0x00026c68      0x41b lib/zlib/libz.o
 .debug_abbrev  0x00027083     0x1d62 net/libnet.o
 .debug_abbrev  0x00028de5      0x152 /home/ru/Knobloch/wrk/BuildRoot/ft-TXT/board/knobloch/TXT/board-support/u-boot-2013.10-ti2013.12.01/arch/arm/lib/eabi_compat.o

.debug_aranges  0x00000000     0x4910
 .debug_aranges
                0x00000000       0x20 arch/arm/cpu/armv7/start.o
 .debug_aranges
                0x00000020       0x30 board/knobloch/TXT/libTXT.o
 .debug_aranges
                0x00000050      0x198 arch/arm/cpu/armv7/am33xx/libam33xx.o
 .debug_aranges
                0x000001e8      0x108 arch/arm/cpu/armv7/libarmv7.o
 .debug_aranges
                0x000002f0      0x108 arch/arm/cpu/armv7/omap-common/libomap-common.o
 .debug_aranges
                0x000003f8      0x2b0 arch/arm/lib/libarm.o
 .debug_aranges
                0x000006a8     0x14c8 common/libcommon.o
 .debug_aranges
                0x00001b70      0x118 disk/libdisk.o
 .debug_aranges
                0x00001c88      0x150 drivers/dfu/libdfu.o
 .debug_aranges
                0x00001dd8       0x60 drivers/gpio/libgpio.o
 .debug_aranges
                0x00001e38       0x60 drivers/i2c/libi2c.o
 .debug_aranges
                0x00001e98      0x190 drivers/mmc/libmmc.o
 .debug_aranges
                0x00002028      0x168 drivers/mtd/libmtd.o
 .debug_aranges
                0x00002190      0x3b8 drivers/mtd/nand/libnand.o
 .debug_aranges
                0x00002548       0xb8 drivers/mtd/spi/libspi_flash.o
 .debug_aranges
                0x00002600      0x410 drivers/mtd/ubi/libubi.o
 .debug_aranges
                0x00002a10       0xe8 drivers/net/phy/libphy.o
 .debug_aranges
                0x00002af8      0x250 drivers/serial/libserial.o
 .debug_aranges
                0x00002d48       0xa0 drivers/spi/libspi.o
 .debug_aranges
                0x00002de8      0x3a8 drivers/usb/gadget/libusb_gadget.o
 .debug_aranges
                0x00003190      0x2b8 drivers/usb/musb-new/libusb_musb-new.o
 .debug_aranges
                0x00003448       0xd8 fs/ext4/libext4fs.o
 .debug_aranges
                0x00003520      0x150 fs/fat/libfat.o
 .debug_aranges
                0x00003670       0x88 fs/libfs.o
 .debug_aranges
                0x000036f8      0x5f0 fs/ubifs/libubifs.o
 .debug_aranges
                0x00003ce8      0x2e8 lib/libfdt/libfdt.o
 .debug_aranges
                0x00003fd0      0x530 lib/libgeneric.o
 .debug_aranges
                0x00004500       0x28 lib/lzo/liblzo.o
 .debug_aranges
                0x00004528       0x68 lib/zlib/libz.o
 .debug_aranges
                0x00004590      0x350 net/libnet.o
 .debug_aranges
                0x000048e0       0x30 /home/ru/Knobloch/wrk/BuildRoot/ft-TXT/board/knobloch/TXT/board-support/u-boot-2013.10-ti2013.12.01/arch/arm/lib/eabi_compat.o

.debug_frame    0x00000000     0xcfec
 .debug_frame   0x00000000       0x68 board/knobloch/TXT/libTXT.o
 .debug_frame   0x00000068      0x2b0 arch/arm/cpu/armv7/am33xx/libam33xx.o
 .debug_frame   0x00000318      0x1d8 arch/arm/cpu/armv7/libarmv7.o
 .debug_frame   0x000004f0      0x184 arch/arm/cpu/armv7/omap-common/libomap-common.o
 .debug_frame   0x00000674      0x4fc arch/arm/lib/libarm.o
 .debug_frame   0x00000b70     0x3c4c common/libcommon.o
 .debug_frame   0x000047bc      0x3e8 disk/libdisk.o
 .debug_frame   0x00004ba4      0x414 drivers/dfu/libdfu.o
 .debug_frame   0x00004fb8       0xe0 drivers/gpio/libgpio.o
 .debug_frame   0x00005098      0x124 drivers/i2c/libi2c.o
 .debug_frame   0x000051bc      0x4cc drivers/mmc/libmmc.o
 .debug_frame   0x00005688      0x4c0 drivers/mtd/libmtd.o
 .debug_frame   0x00005b48      0xd00 drivers/mtd/nand/libnand.o
 .debug_frame   0x00006848      0x20c drivers/mtd/spi/libspi_flash.o
 .debug_frame   0x00006a54      0xd14 drivers/mtd/ubi/libubi.o
 .debug_frame   0x00007768      0x294 drivers/net/phy/libphy.o
 .debug_frame   0x000079fc      0x55c drivers/serial/libserial.o
 .debug_frame   0x00007f58      0x190 drivers/spi/libspi.o
 .debug_frame   0x000080e8      0xa04 drivers/usb/gadget/libusb_gadget.o
 .debug_frame   0x00008aec      0x828 drivers/usb/musb-new/libusb_musb-new.o
 .debug_frame   0x00009314      0x280 fs/ext4/libext4fs.o
 .debug_frame   0x00009594      0x4a0 fs/fat/libfat.o
 .debug_frame   0x00009a34      0x188 fs/libfs.o
 .debug_frame   0x00009bbc     0x1250 fs/ubifs/libubifs.o
 .debug_frame   0x0000ae0c      0x92c lib/libfdt/libfdt.o
 .debug_frame   0x0000b738      0xc04 lib/libgeneric.o
 .debug_frame   0x0000c33c       0x5c lib/lzo/liblzo.o
 .debug_frame   0x0000c398      0x16c lib/zlib/libz.o
 .debug_frame   0x0000c504      0xa60 net/libnet.o
 .debug_frame   0x0000cf64       0x48 /home/ru/Knobloch/wrk/BuildRoot/ft-TXT/board/knobloch/TXT/board-support/u-boot-2013.10-ti2013.12.01/arch/arm/lib/eabi_compat.o
 .debug_frame   0x0000cfac       0x20 /home/ru/Knobloch/wrk/BuildRoot/ft-TXT/output/host/opt/ext-toolchain/bin/../lib/gcc/arm-linux-gnueabihf/4.9.1/libgcc.a(_udivsi3.o)
 .debug_frame   0x0000cfcc       0x20 /home/ru/Knobloch/wrk/BuildRoot/ft-TXT/output/host/opt/ext-toolchain/bin/../lib/gcc/arm-linux-gnueabihf/4.9.1/libgcc.a(_divsi3.o)

.debug_str      0x00000000    0x18522
 .debug_str     0x00000000      0x62b board/knobloch/TXT/libTXT.o
                                0x75b (size before relaxing)
 .debug_str     0x0000062b     0x1a89 arch/arm/cpu/armv7/am33xx/libam33xx.o
                               0x3ccc (size before relaxing)
 .debug_str     0x000020b4      0x35e arch/arm/cpu/armv7/libarmv7.o
                                0xea3 (size before relaxing)
 .debug_str     0x00002412      0x3fb arch/arm/cpu/armv7/omap-common/libomap-common.o
                               0x17e1 (size before relaxing)
 .debug_str     0x0000280d     0x13b3 arch/arm/lib/libarm.o
                               0x42b5 (size before relaxing)
 .debug_str     0x00003bc0     0x8c5f common/libcommon.o
                              0x26770 (size before relaxing)
 .debug_str     0x0000c81f      0x651 disk/libdisk.o
                               0x19db (size before relaxing)
 .debug_str     0x0000ce70      0x4fe drivers/dfu/libdfu.o
                               0x22b6 (size before relaxing)
 .debug_str     0x0000d36e      0x105 drivers/gpio/libgpio.o
                                0x4b5 (size before relaxing)
 .debug_str     0x0000d473      0x18e drivers/i2c/libi2c.o
                                0x729 (size before relaxing)
 .debug_str     0x0000d601      0x4ba drivers/mmc/libmmc.o
                               0x1919 (size before relaxing)
 .debug_str     0x0000dabb      0x350 drivers/mtd/libmtd.o
                               0x135c (size before relaxing)
 .debug_str     0x0000de0b     0x118c drivers/mtd/nand/libnand.o
                               0x6cfb (size before relaxing)
 .debug_str     0x0000ef97      0x2a2 drivers/mtd/spi/libspi_flash.o
                               0x114c (size before relaxing)
 .debug_str     0x0000f239      0xde6 drivers/mtd/ubi/libubi.o
                               0x9c2a (size before relaxing)
 .debug_str     0x0001001f      0x2b7 drivers/net/phy/libphy.o
                                0xf8d (size before relaxing)
 .debug_str     0x000102d6      0x622 drivers/serial/libserial.o
                               0x15db (size before relaxing)
 .debug_str     0x000108f8      0x180 drivers/spi/libspi.o
                                0x97c (size before relaxing)
 .debug_str     0x00010a78     0x170d drivers/usb/gadget/libusb_gadget.o
                               0x5116 (size before relaxing)
 .debug_str     0x00012185     0x14f2 drivers/usb/musb-new/libusb_musb-new.o
                               0x8bab (size before relaxing)
 .debug_str     0x00013677      0x90b fs/ext4/libext4fs.o
                               0x2045 (size before relaxing)
 .debug_str     0x00013f82      0x71e fs/fat/libfat.o
                               0x119e (size before relaxing)
 .debug_str     0x000146a0      0x10d fs/libfs.o
                                0x870 (size before relaxing)
 .debug_str     0x000147ad     0x1a0b fs/ubifs/libubifs.o
                              0x1d2bb (size before relaxing)
 .debug_str     0x000161b8      0x7e0 lib/libfdt/libfdt.o
                               0x245f (size before relaxing)
 .debug_str     0x00016998      0x6d6 lib/libgeneric.o
                               0x5717 (size before relaxing)
 .debug_str     0x0001706e      0x18c lib/lzo/liblzo.o
                                0x58a (size before relaxing)
 .debug_str     0x000171fa      0x2e0 lib/zlib/libz.o
                                0x849 (size before relaxing)
 .debug_str     0x000174da      0xfff net/libnet.o
                               0x5791 (size before relaxing)
 .debug_str     0x000184d9       0x49 /home/ru/Knobloch/wrk/BuildRoot/ft-TXT/board/knobloch/TXT/board-support/u-boot-2013.10-ti2013.12.01/arch/arm/lib/eabi_compat.o
                                0x3d1 (size before relaxing)

.debug_loc      0x00000000    0x7d08f
 .debug_loc     0x00000000      0x165 board/knobloch/TXT/libTXT.o
 .debug_loc     0x00000165      0x863 arch/arm/cpu/armv7/am33xx/libam33xx.o
 .debug_loc     0x000009c8      0x6a1 arch/arm/cpu/armv7/libarmv7.o
 .debug_loc     0x00001069      0x397 arch/arm/cpu/armv7/omap-common/libomap-common.o
 .debug_loc     0x00001400      0xad8 arch/arm/lib/libarm.o
 .debug_loc     0x00001ed8    0x225e7 common/libcommon.o
 .debug_loc     0x000244bf     0x1ba0 disk/libdisk.o
 .debug_loc     0x0002605f     0x18d5 drivers/dfu/libdfu.o
 .debug_loc     0x00027934      0x5d5 drivers/gpio/libgpio.o
 .debug_loc     0x00027f09      0xbf2 drivers/i2c/libi2c.o
 .debug_loc     0x00028afb     0x24f2 drivers/mmc/libmmc.o
 .debug_loc     0x0002afed     0x17ac drivers/mtd/libmtd.o
 .debug_loc     0x0002c799     0xa83c drivers/mtd/nand/libnand.o
 .debug_loc     0x00036fd5      0xceb drivers/mtd/spi/libspi_flash.o
 .debug_loc     0x00037cc0     0x9eb0 drivers/mtd/ubi/libubi.o
 .debug_loc     0x00041b70     0x1663 drivers/net/phy/libphy.o
 .debug_loc     0x000431d3      0x878 drivers/serial/libserial.o
 .debug_loc     0x00043a4b      0xc96 drivers/spi/libspi.o
 .debug_loc     0x000446e1     0x6c30 drivers/usb/gadget/libusb_gadget.o
 .debug_loc     0x0004b311     0x9980 drivers/usb/musb-new/libusb_musb-new.o
 .debug_loc     0x00054c91     0x1cd4 fs/ext4/libext4fs.o
 .debug_loc     0x00056965     0x40f8 fs/fat/libfat.o
 .debug_loc     0x0005aa5d      0x83c fs/libfs.o
 .debug_loc     0x0005b299    0x10652 fs/ubifs/libubifs.o
 .debug_loc     0x0006b8eb     0x42d5 lib/libfdt/libfdt.o
 .debug_loc     0x0006fbc0     0x61d5 lib/libgeneric.o
 .debug_loc     0x00075d95      0xaef lib/lzo/liblzo.o
 .debug_loc     0x00076884     0x2a72 lib/zlib/libz.o
 .debug_loc     0x000792f6     0x3d6d net/libnet.o
 .debug_loc     0x0007d063       0x2c /home/ru/Knobloch/wrk/BuildRoot/ft-TXT/board/knobloch/TXT/board-support/u-boot-2013.10-ti2013.12.01/arch/arm/lib/eabi_compat.o

.debug_ranges   0x00000000     0xb2b0
 .debug_ranges  0x00000000       0x50 board/knobloch/TXT/libTXT.o
 .debug_ranges  0x00000050      0x248 arch/arm/cpu/armv7/am33xx/libam33xx.o
 .debug_ranges  0x00000298       0xe8 arch/arm/cpu/armv7/libarmv7.o
 .debug_ranges  0x00000380      0x118 arch/arm/cpu/armv7/omap-common/libomap-common.o
 .debug_ranges  0x00000498      0x278 arch/arm/lib/libarm.o
 .debug_ranges  0x00000710     0x2628 common/libcommon.o
 .debug_ranges  0x00002d38      0x270 disk/libdisk.o
 .debug_ranges  0x00002fa8      0x2a8 drivers/dfu/libdfu.o
 .debug_ranges  0x00003250       0xa0 drivers/gpio/libgpio.o
 .debug_ranges  0x000032f0      0x380 drivers/i2c/libi2c.o
 .debug_ranges  0x00003670      0x4b0 drivers/mmc/libmmc.o
 .debug_ranges  0x00003b20      0x290 drivers/mtd/libmtd.o
 .debug_ranges  0x00003db0      0xb60 drivers/mtd/nand/libnand.o
 .debug_ranges  0x00004910      0x128 drivers/mtd/spi/libspi_flash.o
 .debug_ranges  0x00004a38      0xda8 drivers/mtd/ubi/libubi.o
 .debug_ranges  0x000057e0      0x228 drivers/net/phy/libphy.o
 .debug_ranges  0x00005a08      0x238 drivers/serial/libserial.o
 .debug_ranges  0x00005c40      0x190 drivers/spi/libspi.o
 .debug_ranges  0x00005dd0      0xc00 drivers/usb/gadget/libusb_gadget.o
 .debug_ranges  0x000069d0      0xea8 drivers/usb/musb-new/libusb_musb-new.o
 .debug_ranges  0x00007878      0x230 fs/ext4/libext4fs.o
 .debug_ranges  0x00007aa8      0x340 fs/fat/libfat.o
 .debug_ranges  0x00007de8       0x78 fs/libfs.o
 .debug_ranges  0x00007e60     0x1d20 fs/ubifs/libubifs.o
 .debug_ranges  0x00009b80      0x540 lib/libfdt/libfdt.o
 .debug_ranges  0x0000a0c0      0x878 lib/libgeneric.o
 .debug_ranges  0x0000a938      0x1f8 lib/lzo/liblzo.o
 .debug_ranges  0x0000ab30       0xa0 lib/zlib/libz.o
 .debug_ranges  0x0000abd0      0x6c0 net/libnet.o
 .debug_ranges  0x0000b290       0x20 /home/ru/Knobloch/wrk/BuildRoot/ft-TXT/board/knobloch/TXT/board-support/u-boot-2013.10-ti2013.12.01/arch/arm/lib/eabi_compat.o
